Archive member included because of file (symbol)

contiki-cc13xx.a(task-schedule.o)
                              nodes-sender.co (task_schedule_set)
contiki-cc13xx.a(node_function.o)
                              nodes-sender.co (get_system_monitor_msg)
contiki-cc13xx.a(contiki-main.o)
                              obj_cc13xx/startup_gcc.o (main)
contiki-cc13xx.a(board.o)     contiki-cc13xx.a(contiki-main.o) (board_init)
contiki-cc13xx.a(node-id.o)   contiki-cc13xx.a(contiki-main.o) (node_id_burn)
contiki-cc13xx.a(bat-voltage.o)
                              contiki-cc13xx.a(node_function.o) (get_voltage)
contiki-cc13xx.a(prop-mode.o)
                              contiki-cc13xx.a(contiki-main.o) (prop_mode_driver)
contiki-cc13xx.a(prop-mode-tx-po)
                              contiki-cc13xx.a(prop-mode.o) (prop_mode_tx_power_431_527)
contiki-cc13xx.a(clock.o)     contiki-cc13xx.a(contiki-main.o) (clock_init)
contiki-cc13xx.a(rtimer-arch.o)
                              contiki-cc13xx.a(contiki-main.o) (rtimer_arch_now)
contiki-cc13xx.a(soc-rtc.o)   contiki-cc13xx.a(contiki-main.o) (soc_rtc_init)
contiki-cc13xx.a(contiki-watchdo)
                              contiki-cc13xx.a(contiki-main.o) (watchdog_init)
contiki-cc13xx.a(putchar.o)   nodes-sender.co (putchar)
contiki-cc13xx.a(ieee-addr.o)
                              contiki-cc13xx.a(contiki-main.o) (ieee_addr_cpy_to)
contiki-cc13xx.a(cc26xx-uart.o)
                              contiki-cc13xx.a(contiki-main.o) (cc26xx_uart_init)
contiki-cc13xx.a(lpm.o)       contiki-cc13xx.a(prop-mode.o) (lpm_sleep)
contiki-cc13xx.a(oscillators.o)
                              contiki-cc13xx.a(contiki-main.o) (oscillators_select_lf_xosc)
contiki-cc13xx.a(netconfig.o)
                              contiki-cc13xx.a(soc-rtc.o) (update_soft_time)
contiki-cc13xx.a(rf-core.o)   contiki-cc13xx.a(prop-mode.o) (rf_core_is_accessible)
contiki-cc13xx.a(rf-ble.o)    contiki-cc13xx.a(prop-mode.o) (rf_ble_is_active)
contiki-cc13xx.a(random.o)    nodes-sender.co (random_rand)
contiki-cc13xx.a(soc-trng.o)  contiki-cc13xx.a(random.o) (soc_trng_rand_synchronous)
contiki-cc13xx.a(dbg-printf.o)
                              contiki-cc13xx.a(task-schedule.o) (printf)
contiki-cc13xx.a(strformat.o)
                              contiki-cc13xx.a(dbg-printf.o) (format_str_v)
contiki-cc13xx.a(autostart.o)
                              contiki-cc13xx.a(contiki-main.o) (autostart_start)
contiki-cc13xx.a(ctimer.o)    contiki-cc13xx.a(contiki-main.o) (ctimer_init)
contiki-cc13xx.a(energest.o)  contiki-cc13xx.a(contiki-main.o) (energest_init)
contiki-cc13xx.a(etimer.o)    contiki-cc13xx.a(clock.o) (etimer_request_poll)
contiki-cc13xx.a(process.o)   contiki-cc13xx.a(soc-trng.o) (process_alloc_event)
contiki-cc13xx.a(rtimer.o)    contiki-cc13xx.a(contiki-main.o) (rtimer_init)
contiki-cc13xx.a(timer.o)     contiki-cc13xx.a(etimer.o) (timer_set)
contiki-cc13xx.a(serial-line.o)
                              nodes-sender.co (serial_line_event_message2)
contiki-cc13xx.a(leds.o)      contiki-cc13xx.a(board.o) (leds_init)
contiki-cc13xx.a(list.o)      contiki-cc13xx.a(task-schedule.o) (list_init)
contiki-cc13xx.a(ringbuf.o)   contiki-cc13xx.a(serial-line.o) (ringbuf_init)
contiki-cc13xx.a(uip-ds6.o)   nodes-sender.co (uip_ds6_if)
contiki-cc13xx.a(uip-ds6-route.o)
                              contiki-cc13xx.a(uip-ds6.o) (uip_ds6_route_init)
contiki-cc13xx.a(uip6.o)      nodes-sender.co (uip_appdata)
contiki-cc13xx.a(uip-ds6-nbr.o)
                              contiki-cc13xx.a(uip-ds6.o) (uip_ds6_neighbors_init)
contiki-cc13xx.a(uip-nd6.o)   contiki-cc13xx.a(uip6.o) (uip_nd6_init)
contiki-cc13xx.a(sicslowpan.o)
                              contiki-cc13xx.a(contiki-main.o) (sicslowpan_driver)
contiki-cc13xx.a(uip-debug.o)
                              nodes-sender.co (uip_debug_ipaddr_print)
contiki-cc13xx.a(uip-udp-packet.)
                              nodes-sender.co (uip_udp_packet_sendto)
contiki-cc13xx.a(tcpip.o)     contiki-cc13xx.a(sicslowpan.o) (tcpip_set_outputfunc)
contiki-cc13xx.a(rpl-dag.o)   contiki-cc13xx.a(node_function.o) (rpl_get_parent_ipaddr)
contiki-cc13xx.a(rpl-timers.o)
                              contiki-cc13xx.a(rpl-dag.o) (rpl_reset_dio_timer)
contiki-cc13xx.a(rpl.o)       contiki-cc13xx.a(uip-ds6-nbr.o) (rpl_link_neighbor_callback)
contiki-cc13xx.a(rpl-mrhof.o)
                              contiki-cc13xx.a(rpl-dag.o) (rpl_mrhof)
contiki-cc13xx.a(setup.o)     obj_cc13xx/startup_gcc.o (NOROM_SetupTrimDevice)
contiki-cc13xx.a(osc.o)       contiki-cc13xx.a(oscillators.o) (NOROM_OSCClockSourceSet)
contiki-cc13xx.a(setup_rom.o)
                              contiki-cc13xx.a(setup.o) (NOROM_SetupAfterColdResetWakeupFromShutDownCfg1)
contiki-cc13xx.a(cpu.o)       contiki-cc13xx.a(contiki-main.o) (NOROM_CPUcpsid)
contiki-cc13xx.a(ddi.o)       contiki-cc13xx.a(setup_rom.o) (NOROM_DDI32RegWrite)
contiki-cc13xx.a(rfc.o)       contiki-cc13xx.a(prop-mode.o) (NOROM_RFCRTrim)
contiki-cc13xx.a(chipinfo.o)  contiki-cc13xx.a(prop-mode.o) (NOROM_ChipInfo_GetChipFamily)
contiki-cc13xx.a(adi.o)       contiki-cc13xx.a(oscillators.o) (SafeHapiVoid)
contiki-cc13xx.a(sys_ctrl.o)  contiki-cc13xx.a(lpm.o) (NOROM_SysCtrlSetRechargeBeforePowerDown)
contiki-cc13xx.a(pwr_ctrl.o)  contiki-cc13xx.a(lpm.o) (NOROM_PowerCtrlSourceSet)
contiki-cc13xx.a(trng.o)      contiki-cc13xx.a(soc-trng.o) (NOROM_TRNGConfigure)
contiki-cc13xx.a(aon_rtc.o)   contiki-cc13xx.a(rtimer-arch.o) (NOROM_AONRTCCurrentCompareValueGet)
contiki-cc13xx.a(aon_batmon.o)
                              contiki-cc13xx.a(osc.o) (NOROM_AONBatMonTemperatureGetDegC)
contiki-cc13xx.a(orpl-bitmap.o)
                              contiki-cc13xx.a(tcpip.o) (orpl_bitmap_current_rank)
contiki-cc13xx.a(queuebuf.o)  contiki-cc13xx.a(contiki-main.o) (queuebuf_init)
contiki-cc13xx.a(nbr-table.o)
                              contiki-cc13xx.a(uip-ds6-nbr.o) (nbr_table_register)
contiki-cc13xx.a(packetbuf.o)
                              contiki-cc13xx.a(queuebuf.o) (packetbuf_copyto)
contiki-cc13xx.a(netstack.o)  contiki-cc13xx.a(contiki-main.o) (netstack_init)
contiki-cc13xx.a(linkaddr.o)  contiki-cc13xx.a(sicslowpan.o) (linkaddr_copy)
contiki-cc13xx.a(framer-802154.o)
                              contiki-cc13xx.a(sicslowpan.o) (framer_802154)
contiki-cc13xx.a(csma.o)      contiki-cc13xx.a(contiki-main.o) (csma_driver)
contiki-cc13xx.a(frame802154.o)
                              contiki-cc13xx.a(framer-802154.o) (frame802154_hdrlen)
contiki-cc13xx.a(mac.o)       contiki-cc13xx.a(csma.o) (mac_call_sent_callback)
contiki-cc13xx.a(contikimac-fcf.)
                              contiki-cc13xx.a(node_function.o) (get_cycle_time)
contiki-cc13xx.a(nullsec.o)   contiki-cc13xx.a(sicslowpan.o) (nullsec_driver)
contiki-cc13xx.a(rnfd-root.o)
                              contiki-cc13xx.a(rpl-dag.o) (rnfd_request_info)
contiki-cc13xx.a(rnfd.o)      contiki-cc13xx.a(uip-ds6-nbr.o) (get_rnfd_start_flag)
contiki-cc13xx.a(udp-fragment.o)
                              contiki-cc13xx.a(uip-udp-packet.) (udp_fragment_packet_send)
contiki-cc13xx.a(auto-sleep.o)
                              contiki-cc13xx.a(netconfig.o) (clear_force_auto_sleep)
contiki-cc13xx.a(netsynch.o)  contiki-cc13xx.a(task-schedule.o) (netsynch_is_synched)
contiki-cc13xx.a(netsync-auto-ca)
                              contiki-cc13xx.a(node_function.o) (get_autocal_info)
contiki-cc13xx.a(wake-common.o)
                              contiki-cc13xx.a(contikimac-fcf.) (wake_sent_callback)
contiki-cc13xx.a(low-latency.o)
                              contiki-cc13xx.a(soc-rtc.o) (set_lowLatency_flag)
contiki-cc13xx.a(flashdata.o)
                              contiki-cc13xx.a(node-id.o) (read_flash)
contiki-cc13xx.a(smartrf-setting)
                              contiki-cc13xx.a(prop-mode.o) (smartrf_settings_cmd_prop_rx_adv)
contiki-cc13xx.a(aux-ctrl.o)  contiki-cc13xx.a(lpm.o) (aux_ctrl_power_up)
contiki-cc13xx.a(fcf.o)       contiki-cc13xx.a(uip6.o) (fcf_driver)
contiki-cc13xx.a(stimer.o)    contiki-cc13xx.a(uip-ds6.o) (stimer_set)
contiki-cc13xx.a(memb.o)      contiki-cc13xx.a(uip-ds6-route.o) (memb_init)
contiki-cc13xx.a(uip-icmp6.o)
                              contiki-cc13xx.a(uip6.o) (uip_icmp6_input)
contiki-cc13xx.a(rpl-icmp6.o)
                              contiki-cc13xx.a(rpl-timers.o) (dis_output)
contiki-cc13xx.a(flash.o)     contiki-cc13xx.a(flashdata.o) (NOROM_FlashSectorErase)
contiki-cc13xx.a(vims.o)      contiki-cc13xx.a(flashdata.o) (NOROM_VIMSModeGet)
contiki-cc13xx.a(mac-sequence.o)
                              contiki-cc13xx.a(contikimac-fcf.) (mac_sequence_is_duplicate)
contiki-cc13xx.a(rnfd-icmp6.o)
                              contiki-cc13xx.a(rnfd-root.o) (rnfd_request_out)
contiki-cc13xx.a(wake-dev.o)  contiki-cc13xx.a(wake-common.o) (wake_dev_init)
contiki-cc13xx.a(wake-node.o)
                              contiki-cc13xx.a(wake-common.o) (wake_send)
/opt/my1310ARM/toolchain/gcc-arm-none-eabi-4_9-2015q3/bin/../lib/gcc/arm-none-eabi/4.9.3/armv7-m/libgcc.a(_aeabi_uldivmod.o)
                              contiki-cc13xx.a(node_function.o) (__aeabi_uldivmod)
/opt/my1310ARM/toolchain/gcc-arm-none-eabi-4_9-2015q3/bin/../lib/gcc/arm-none-eabi/4.9.3/armv7-m/libgcc.a(bpabi.o)
                              /opt/my1310ARM/toolchain/gcc-arm-none-eabi-4_9-2015q3/bin/../lib/gcc/arm-none-eabi/4.9.3/armv7-m/libgcc.a(_aeabi_uldivmod.o) (__gnu_uldivmod_helper)
/opt/my1310ARM/toolchain/gcc-arm-none-eabi-4_9-2015q3/bin/../lib/gcc/arm-none-eabi/4.9.3/armv7-m/libgcc.a(_dvmd_tls.o)
                              /opt/my1310ARM/toolchain/gcc-arm-none-eabi-4_9-2015q3/bin/../lib/gcc/arm-none-eabi/4.9.3/armv7-m/libgcc.a(_aeabi_uldivmod.o) (__aeabi_ldiv0)
/opt/my1310ARM/toolchain/gcc-arm-none-eabi-4_9-2015q3/bin/../lib/gcc/arm-none-eabi/4.9.3/armv7-m/libgcc.a(_divdi3.o)
                              /opt/my1310ARM/toolchain/gcc-arm-none-eabi-4_9-2015q3/bin/../lib/gcc/arm-none-eabi/4.9.3/armv7-m/libgcc.a(bpabi.o) (__divdi3)
/opt/my1310ARM/toolchain/gcc-arm-none-eabi-4_9-2015q3/bin/../lib/gcc/arm-none-eabi/4.9.3/armv7-m/libgcc.a(_udivdi3.o)
                              /opt/my1310ARM/toolchain/gcc-arm-none-eabi-4_9-2015q3/bin/../lib/gcc/arm-none-eabi/4.9.3/armv7-m/libgcc.a(bpabi.o) (__udivdi3)
/opt/my1310ARM/toolchain/gcc-arm-none-eabi-4_9-2015q3/bin/../lib/gcc/arm-none-eabi/4.9.3/../../../../arm-none-eabi/lib/armv7-m/libc.a(lib_a-malloc.o)
                              nodes-sender.co (malloc)
/opt/my1310ARM/toolchain/gcc-arm-none-eabi-4_9-2015q3/bin/../lib/gcc/arm-none-eabi/4.9.3/../../../../arm-none-eabi/lib/armv7-m/libc.a(lib_a-mallocr.o)
                              /opt/my1310ARM/toolchain/gcc-arm-none-eabi-4_9-2015q3/bin/../lib/gcc/arm-none-eabi/4.9.3/../../../../arm-none-eabi/lib/armv7-m/libc.a(lib_a-malloc.o) (_malloc_r)
/opt/my1310ARM/toolchain/gcc-arm-none-eabi-4_9-2015q3/bin/../lib/gcc/arm-none-eabi/4.9.3/../../../../arm-none-eabi/lib/armv7-m/libc.a(lib_a-memcmp.o)
                              contiki-cc13xx.a(uip-ds6.o) (memcmp)
/opt/my1310ARM/toolchain/gcc-arm-none-eabi-4_9-2015q3/bin/../lib/gcc/arm-none-eabi/4.9.3/../../../../arm-none-eabi/lib/armv7-m/libc.a(lib_a-memcpy.o)
                              nodes-sender.co (memcpy)
/opt/my1310ARM/toolchain/gcc-arm-none-eabi-4_9-2015q3/bin/../lib/gcc/arm-none-eabi/4.9.3/../../../../arm-none-eabi/lib/armv7-m/libc.a(lib_a-memmove.o)
                              contiki-cc13xx.a(uip6.o) (memmove)
/opt/my1310ARM/toolchain/gcc-arm-none-eabi-4_9-2015q3/bin/../lib/gcc/arm-none-eabi/4.9.3/../../../../arm-none-eabi/lib/armv7-m/libc.a(lib_a-memset.o)
                              nodes-sender.co (memset)
/opt/my1310ARM/toolchain/gcc-arm-none-eabi-4_9-2015q3/bin/../lib/gcc/arm-none-eabi/4.9.3/../../../../arm-none-eabi/lib/armv7-m/libc.a(lib_a-mlock.o)
                              /opt/my1310ARM/toolchain/gcc-arm-none-eabi-4_9-2015q3/bin/../lib/gcc/arm-none-eabi/4.9.3/../../../../arm-none-eabi/lib/armv7-m/libc.a(lib_a-mallocr.o) (__malloc_lock)
/opt/my1310ARM/toolchain/gcc-arm-none-eabi-4_9-2015q3/bin/../lib/gcc/arm-none-eabi/4.9.3/../../../../arm-none-eabi/lib/armv7-m/libc.a(lib_a-sbrkr.o)
                              /opt/my1310ARM/toolchain/gcc-arm-none-eabi-4_9-2015q3/bin/../lib/gcc/arm-none-eabi/4.9.3/../../../../arm-none-eabi/lib/armv7-m/libc.a(lib_a-mallocr.o) (_sbrk_r)
/opt/my1310ARM/toolchain/gcc-arm-none-eabi-4_9-2015q3/bin/../lib/gcc/arm-none-eabi/4.9.3/../../../../arm-none-eabi/lib/armv7-m/libc.a(lib_a-strlen.o)
                              contiki-cc13xx.a(putchar.o) (strlen)
/opt/my1310ARM/toolchain/gcc-arm-none-eabi-4_9-2015q3/bin/../lib/gcc/arm-none-eabi/4.9.3/../../../../arm-none-eabi/lib/armv7-m/libc.a(lib_a-freer.o)
                              /opt/my1310ARM/toolchain/gcc-arm-none-eabi-4_9-2015q3/bin/../lib/gcc/arm-none-eabi/4.9.3/../../../../arm-none-eabi/lib/armv7-m/libc.a(lib_a-malloc.o) (_free_r)
/opt/my1310ARM/toolchain/gcc-arm-none-eabi-4_9-2015q3/bin/../lib/gcc/arm-none-eabi/4.9.3/../../../../arm-none-eabi/lib/armv7-m/libc.a(lib_a-impure.o)
                              /opt/my1310ARM/toolchain/gcc-arm-none-eabi-4_9-2015q3/bin/../lib/gcc/arm-none-eabi/4.9.3/../../../../arm-none-eabi/lib/armv7-m/libc.a(lib_a-malloc.o) (_impure_ptr)
/opt/my1310ARM/toolchain/gcc-arm-none-eabi-4_9-2015q3/bin/../lib/gcc/arm-none-eabi/4.9.3/../../../../arm-none-eabi/lib/armv7-m/libc.a(lib_a-reent.o)
                              /opt/my1310ARM/toolchain/gcc-arm-none-eabi-4_9-2015q3/bin/../lib/gcc/arm-none-eabi/4.9.3/../../../../arm-none-eabi/lib/armv7-m/libc.a(lib_a-sbrkr.o) (errno)
/opt/my1310ARM/toolchain/gcc-arm-none-eabi-4_9-2015q3/bin/../lib/gcc/arm-none-eabi/4.9.3/../../../../arm-none-eabi/lib/armv7-m/libnosys.a(sbrk.o)
                              /opt/my1310ARM/toolchain/gcc-arm-none-eabi-4_9-2015q3/bin/../lib/gcc/arm-none-eabi/4.9.3/../../../../arm-none-eabi/lib/armv7-m/libc.a(lib_a-sbrkr.o) (_sbrk)

Allocating common symbols
Common symbol       size              file

energest_total_time
                    0x78              contiki-cc13xx.a(energest.o)
uip_ds6_timer_ra    0x8               contiki-cc13xx.a(uip-ds6.o)
uip_ds6_if          0xf8              contiki-cc13xx.a(uip-ds6.o)
uip_ds6_netif_addr_list_offset
                    0x1               contiki-cc13xx.a(uip-ds6.o)
uip_len             0x2               contiki-cc13xx.a(uip6.o)
energest_total_count
                    0x4               contiki-cc13xx.a(energest.o)
normal_byte         0x2               nodes-sender.co
errno               0x4               /opt/my1310ARM/toolchain/gcc-arm-none-eabi-4_9-2015q3/bin/../lib/gcc/arm-none-eabi/4.9.3/../../../../arm-none-eabi/lib/armv7-m/libc.a(lib_a-reent.o)
bitmap_receive_info
                    0x6               contiki-cc13xx.a(orpl-bitmap.o)
uip_ds6_addr_size   0x1               contiki-cc13xx.a(uip-ds6.o)
uip_sappdata        0x4               contiki-cc13xx.a(uip6.o)
energest_current_mode
                    0xf               contiki-cc13xx.a(energest.o)
packetbuf_addrs     0x10              contiki-cc13xx.a(packetbuf.o)
uip_ds6_prefix_list
                    0x60              contiki-cc13xx.a(uip-ds6.o)
uip_lladdr          0x8               contiki-cc13xx.a(uip6.o)
uip_aligned_buf     0x500             contiki-cc13xx.a(uip6.o)
uip_flags           0x1               contiki-cc13xx.a(uip6.o)
uploadFlag          0x1               nodes-sender.co
uip_ds6_timer_periodic
                    0x10              contiki-cc13xx.a(uip-ds6.o)
uip_next_hdr        0x4               contiki-cc13xx.a(uip6.o)
linkaddr_node_addr  0x8               contiki-cc13xx.a(linkaddr.o)
default_instance    0x4               contiki-cc13xx.a(rpl-dag.o)
channel_byte        0x1               nodes-sender.co
uip_udp_conn        0x4               contiki-cc13xx.a(uip6.o)
packetbuf_attrs     0x1e              contiki-cc13xx.a(packetbuf.o)
bitmap_send_info    0x6               contiki-cc13xx.a(orpl-bitmap.o)
instance_table      0xf0              contiki-cc13xx.a(rpl-dag.o)
uip_appdata         0x4               contiki-cc13xx.a(uip6.o)
uip_conn            0x4               contiki-cc13xx.a(uip6.o)
tcpip_event         0x1               contiki-cc13xx.a(tcpip.o)
uip_icmp6_conns     0x8               contiki-cc13xx.a(uip6.o)
serial_line_event_message2
                    0x1               contiki-cc13xx.a(serial-line.o)
restart_count       0x2               nodes-sender.co
energest_current_time
                    0x3c              contiki-cc13xx.a(energest.o)
serial_line_event_message
                    0x1               contiki-cc13xx.a(serial-line.o)
tcpip_icmp6_event   0x1               contiki-cc13xx.a(tcpip.o)
cmd_read_meter      0x1e              nodes-sender.co
uip_slen            0x2               contiki-cc13xx.a(uip6.o)
uip_udp_conns       0x140             contiki-cc13xx.a(uip6.o)

Discarded input sections

 .text          0x00000000        0x0 obj_cc13xx/fault-handlers.o
 .data          0x00000000        0x0 obj_cc13xx/fault-handlers.o
 .bss           0x00000000        0x0 obj_cc13xx/fault-handlers.o
 .text          0x00000000        0x0 obj_cc13xx/ccfg.o
 .data          0x00000000        0x0 obj_cc13xx/ccfg.o
 .bss           0x00000000        0x0 obj_cc13xx/ccfg.o
 .text          0x00000000        0x0 obj_cc13xx/startup_gcc.o
 .data          0x00000000        0x0 obj_cc13xx/startup_gcc.o
 .bss           0x00000000        0x0 obj_cc13xx/startup_gcc.o
 .text.FaultISRHandler
                0x00000000        0x4 obj_cc13xx/startup_gcc.o
 .text          0x00000000        0x0 nodes-sender.co
 .data          0x00000000        0x0 nodes-sender.co
 .bss           0x00000000        0x0 nodes-sender.co
 .text          0x00000000        0x0 contiki-cc13xx.a(task-schedule.o)
 .data          0x00000000        0x0 contiki-cc13xx.a(task-schedule.o)
 .bss           0x00000000        0x0 contiki-cc13xx.a(task-schedule.o)
 .text.task_schedule_stop
                0x00000000       0x34 contiki-cc13xx.a(task-schedule.o)
 .text          0x00000000        0x0 contiki-cc13xx.a(node_function.o)
 .data          0x00000000        0x0 contiki-cc13xx.a(node_function.o)
 .bss           0x00000000        0x0 contiki-cc13xx.a(node_function.o)
 .text.getNetDataTaskPeriod
                0x00000000        0xc contiki-cc13xx.a(node_function.o)
 .text.MeterCommandBurn
                0x00000000        0x4 contiki-cc13xx.a(node_function.o)
 .text          0x00000000        0x0 contiki-cc13xx.a(contiki-main.o)
 .data          0x00000000        0x0 contiki-cc13xx.a(contiki-main.o)
 .bss           0x00000000        0x0 contiki-cc13xx.a(contiki-main.o)
 .text          0x00000000        0x0 contiki-cc13xx.a(board.o)
 .data          0x00000000        0x0 contiki-cc13xx.a(board.o)
 .bss           0x00000000        0x0 contiki-cc13xx.a(board.o)
 .text.leds_arch_get
                0x00000000        0xc contiki-cc13xx.a(board.o)
 .text.logic_test
                0x00000000        0xc contiki-cc13xx.a(board.o)
 .text          0x00000000        0x0 contiki-cc13xx.a(node-id.o)
 .data          0x00000000        0x0 contiki-cc13xx.a(node-id.o)
 .bss           0x00000000        0x0 contiki-cc13xx.a(node-id.o)
 .text.node_id_restore
                0x00000000        0x4 contiki-cc13xx.a(node-id.o)
 .text          0x00000000        0x0 contiki-cc13xx.a(bat-voltage.o)
 .data          0x00000000        0x0 contiki-cc13xx.a(bat-voltage.o)
 .bss           0x00000000        0x0 contiki-cc13xx.a(bat-voltage.o)
 .text          0x00000000        0x0 contiki-cc13xx.a(prop-mode.o)
 .data          0x00000000        0x0 contiki-cc13xx.a(prop-mode.o)
 .bss           0x00000000        0x0 contiki-cc13xx.a(prop-mode.o)
 .text.compute_noise
                0x00000000      0x1c0 contiki-cc13xx.a(prop-mode.o)
 .text.add_cca  0x00000000      0x118 contiki-cc13xx.a(prop-mode.o)
 .bss.arr_size  0x00000000        0x1 contiki-cc13xx.a(prop-mode.o)
 .bss.cca_recorder
                0x00000000       0x64 contiki-cc13xx.a(prop-mode.o)
 .bss.compute_noise_count.8949
                0x00000000        0x1 contiki-cc13xx.a(prop-mode.o)
 .bss.cca_answer
                0x00000000        0xa contiki-cc13xx.a(prop-mode.o)
 .data.record_pointer
                0x00000000        0x1 contiki-cc13xx.a(prop-mode.o)
 .rodata.str1.4
                0x00000000       0x10 contiki-cc13xx.a(prop-mode.o)
 .bss.last_change_time.8950
                0x00000000        0x4 contiki-cc13xx.a(prop-mode.o)
 .bss.answer_size
                0x00000000        0x1 contiki-cc13xx.a(prop-mode.o)
 .data.last_env_noise
                0x00000000        0x1 contiki-cc13xx.a(prop-mode.o)
 .bss.change_time_count.8951
                0x00000000        0x1 contiki-cc13xx.a(prop-mode.o)
 .data.env_noise
                0x00000000        0x1 contiki-cc13xx.a(prop-mode.o)
 .text          0x00000000        0x0 contiki-cc13xx.a(prop-mode-tx-po)
 .data          0x00000000        0x0 contiki-cc13xx.a(prop-mode-tx-po)
 .bss           0x00000000        0x0 contiki-cc13xx.a(prop-mode-tx-po)
 .rodata.prop_mode_tx_power_779_930
                0x00000000       0x88 contiki-cc13xx.a(prop-mode-tx-po)
 .text          0x00000000        0x0 contiki-cc13xx.a(clock.o)
 .data          0x00000000        0x0 contiki-cc13xx.a(clock.o)
 .bss           0x00000000        0x0 contiki-cc13xx.a(clock.o)
 .text.clock_wait
                0x00000000       0x24 contiki-cc13xx.a(clock.o)
 .text.clock_delay_usec
                0x00000000       0x84 contiki-cc13xx.a(clock.o)
 .text.clock_delay
                0x00000000        0x8 contiki-cc13xx.a(clock.o)
 .text          0x00000000        0x0 contiki-cc13xx.a(rtimer-arch.o)
 .data          0x00000000        0x0 contiki-cc13xx.a(rtimer-arch.o)
 .bss           0x00000000        0x0 contiki-cc13xx.a(rtimer-arch.o)
 .text          0x00000000        0x0 contiki-cc13xx.a(soc-rtc.o)
 .data          0x00000000        0x0 contiki-cc13xx.a(soc-rtc.o)
 .bss           0x00000000        0x0 contiki-cc13xx.a(soc-rtc.o)
 .text.soc_rtc_get_next_trigger
                0x00000000       0x28 contiki-cc13xx.a(soc-rtc.o)
 .text.enable_etimer
                0x00000000       0x20 contiki-cc13xx.a(soc-rtc.o)
 .text.disable_etimer
                0x00000000        0xc contiki-cc13xx.a(soc-rtc.o)
 .text.real_time_clock_second
                0x00000000       0x10 contiki-cc13xx.a(soc-rtc.o)
 .data.for_efficiency_test
                0x00000000        0x1 contiki-cc13xx.a(soc-rtc.o)
 .text          0x00000000        0x0 contiki-cc13xx.a(contiki-watchdo)
 .data          0x00000000        0x0 contiki-cc13xx.a(contiki-watchdo)
 .bss           0x00000000        0x0 contiki-cc13xx.a(contiki-watchdo)
 .text.watchdog_stop
                0x00000000       0x18 contiki-cc13xx.a(contiki-watchdo)
 .text          0x00000000        0x0 contiki-cc13xx.a(putchar.o)
 .data          0x00000000        0x0 contiki-cc13xx.a(putchar.o)
 .bss           0x00000000        0x0 contiki-cc13xx.a(putchar.o)
 .text          0x00000000        0x0 contiki-cc13xx.a(ieee-addr.o)
 .data          0x00000000        0x0 contiki-cc13xx.a(ieee-addr.o)
 .bss           0x00000000        0x0 contiki-cc13xx.a(ieee-addr.o)
 .text          0x00000000        0x0 contiki-cc13xx.a(cc26xx-uart.o)
 .data          0x00000000        0x0 contiki-cc13xx.a(cc26xx-uart.o)
 .bss           0x00000000        0x0 contiki-cc13xx.a(cc26xx-uart.o)
 .text          0x00000000        0x0 contiki-cc13xx.a(lpm.o)
 .data          0x00000000        0x0 contiki-cc13xx.a(lpm.o)
 .bss           0x00000000        0x0 contiki-cc13xx.a(lpm.o)
 .text.lpm_shutdown
                0x00000000      0x19c contiki-cc13xx.a(lpm.o)
 .text          0x00000000        0x0 contiki-cc13xx.a(oscillators.o)
 .data          0x00000000        0x0 contiki-cc13xx.a(oscillators.o)
 .bss           0x00000000        0x0 contiki-cc13xx.a(oscillators.o)
 .text.oscillators_select_lf_rcosc
                0x00000000       0x3c contiki-cc13xx.a(oscillators.o)
 .text          0x00000000        0x0 contiki-cc13xx.a(netconfig.o)
 .data          0x00000000        0x0 contiki-cc13xx.a(netconfig.o)
 .bss           0x00000000        0x0 contiki-cc13xx.a(netconfig.o)
 .text.external_watch_dog
                0x00000000       0x38 contiki-cc13xx.a(netconfig.o)
 .text.set_ledon_flag
                0x00000000        0xc contiki-cc13xx.a(netconfig.o)
 .bss.ledon_flag
                0x00000000        0x1 contiki-cc13xx.a(netconfig.o)
 .bss.active_flag_one_second_before
                0x00000000        0x1 contiki-cc13xx.a(netconfig.o)
 .data.test_use_flag
                0x00000000        0x1 contiki-cc13xx.a(netconfig.o)
 .text          0x00000000        0x0 contiki-cc13xx.a(rf-core.o)
 .data          0x00000000        0x0 contiki-cc13xx.a(rf-core.o)
 .bss           0x00000000        0x0 contiki-cc13xx.a(rf-core.o)
 .text.rf_core_boot
                0x00000000       0x1c contiki-cc13xx.a(rf-core.o)
 .text.rf_core_restart_rat
                0x00000000       0x18 contiki-cc13xx.a(rf-core.o)
 .text.rf_core_init_radio_op
                0x00000000       0x20 contiki-cc13xx.a(rf-core.o)
 .text.rf_core_primary_mode_abort
                0x00000000       0x14 contiki-cc13xx.a(rf-core.o)
 .text.rf_core_primary_mode_restore
                0x00000000       0x14 contiki-cc13xx.a(rf-core.o)
 .text          0x00000000        0x0 contiki-cc13xx.a(rf-ble.o)
 .data          0x00000000        0x0 contiki-cc13xx.a(rf-ble.o)
 .bss           0x00000000        0x0 contiki-cc13xx.a(rf-ble.o)
 .text.process_thread_rf_ble_beacon_process
                0x00000000      0x270 contiki-cc13xx.a(rf-ble.o)
 .text.rf_ble_beacond_config
                0x00000000        0x4 contiki-cc13xx.a(rf-ble.o)
 .text.rf_ble_beacond_start
                0x00000000        0x4 contiki-cc13xx.a(rf-ble.o)
 .text.rf_ble_beacond_stop
                0x00000000        0xc contiki-cc13xx.a(rf-ble.o)
 .data.rf_ble_beacon_process
                0x00000000       0x10 contiki-cc13xx.a(rf-ble.o)
 .bss.p         0x00000000        0x4 contiki-cc13xx.a(rf-ble.o)
 .bss.ble_params_buf
                0x00000000       0x20 contiki-cc13xx.a(rf-ble.o)
 .rodata.str1.4
                0x00000000       0x26 contiki-cc13xx.a(rf-ble.o)
 .bss.ble_adv_et
                0x00000000       0x10 contiki-cc13xx.a(rf-ble.o)
 .bss.i         0x00000000        0x4 contiki-cc13xx.a(rf-ble.o)
 .bss.payload   0x00000000       0x40 contiki-cc13xx.a(rf-ble.o)
 .data.beacond_config
                0x00000000       0x24 contiki-cc13xx.a(rf-ble.o)
 .data.ble_overrides
                0x00000000       0x1c contiki-cc13xx.a(rf-ble.o)
 .text          0x00000000        0x0 contiki-cc13xx.a(random.o)
 .data          0x00000000        0x0 contiki-cc13xx.a(random.o)
 .bss           0x00000000        0x0 contiki-cc13xx.a(random.o)
 .text          0x00000000        0x0 contiki-cc13xx.a(soc-trng.o)
 .data          0x00000000        0x0 contiki-cc13xx.a(soc-trng.o)
 .bss           0x00000000        0x0 contiki-cc13xx.a(soc-trng.o)
 .text.soc_trng_rand_asynchronous
                0x00000000      0x13c contiki-cc13xx.a(soc-trng.o)
 .text          0x00000000        0x0 contiki-cc13xx.a(dbg-printf.o)
 .data          0x00000000        0x0 contiki-cc13xx.a(dbg-printf.o)
 .bss           0x00000000        0x0 contiki-cc13xx.a(dbg-printf.o)
 .text          0x00000000        0x0 contiki-cc13xx.a(strformat.o)
 .data          0x00000000        0x0 contiki-cc13xx.a(strformat.o)
 .bss           0x00000000        0x0 contiki-cc13xx.a(strformat.o)
 .text.format_str
                0x00000000       0x20 contiki-cc13xx.a(strformat.o)
 .text          0x00000000        0x0 contiki-cc13xx.a(autostart.o)
 .data          0x00000000        0x0 contiki-cc13xx.a(autostart.o)
 .bss           0x00000000        0x0 contiki-cc13xx.a(autostart.o)
 .text.autostart_exit
                0x00000000       0x18 contiki-cc13xx.a(autostart.o)
 .text          0x00000000        0x0 contiki-cc13xx.a(ctimer.o)
 .data          0x00000000        0x0 contiki-cc13xx.a(ctimer.o)
 .bss           0x00000000        0x0 contiki-cc13xx.a(ctimer.o)
 .text.ctimer_restart
                0x00000000       0x38 contiki-cc13xx.a(ctimer.o)
 .text.ctimer_expired
                0x00000000       0x38 contiki-cc13xx.a(ctimer.o)
 .text          0x00000000        0x0 contiki-cc13xx.a(energest.o)
 .data          0x00000000        0x0 contiki-cc13xx.a(energest.o)
 .bss           0x00000000        0x0 contiki-cc13xx.a(energest.o)
 .text.energest_leveldevice_leveltime
                0x00000000        0x8 contiki-cc13xx.a(energest.o)
 .text          0x00000000        0x0 contiki-cc13xx.a(etimer.o)
 .data          0x00000000        0x0 contiki-cc13xx.a(etimer.o)
 .bss           0x00000000        0x0 contiki-cc13xx.a(etimer.o)
 .text.etimer_reset_with_new_interval
                0x00000000       0x18 contiki-cc13xx.a(etimer.o)
 .text.etimer_restart
                0x00000000       0x14 contiki-cc13xx.a(etimer.o)
 .text.etimer_adjust
                0x00000000        0xc contiki-cc13xx.a(etimer.o)
 .text.etimer_expiration_time
                0x00000000        0x8 contiki-cc13xx.a(etimer.o)
 .text.etimer_start_time
                0x00000000        0x4 contiki-cc13xx.a(etimer.o)
 .text          0x00000000        0x0 contiki-cc13xx.a(process.o)
 .data          0x00000000        0x0 contiki-cc13xx.a(process.o)
 .bss           0x00000000        0x0 contiki-cc13xx.a(process.o)
 .text.process_exit
                0x00000000        0xc contiki-cc13xx.a(process.o)
 .text.process_is_running
                0x00000000        0xc contiki-cc13xx.a(process.o)
 .text          0x00000000        0x0 contiki-cc13xx.a(rtimer.o)
 .data          0x00000000        0x0 contiki-cc13xx.a(rtimer.o)
 .bss           0x00000000        0x0 contiki-cc13xx.a(rtimer.o)
 .text          0x00000000        0x0 contiki-cc13xx.a(timer.o)
 .data          0x00000000        0x0 contiki-cc13xx.a(timer.o)
 .bss           0x00000000        0x0 contiki-cc13xx.a(timer.o)
 .text.timer_restart
                0x00000000        0xc contiki-cc13xx.a(timer.o)
 .text.timer_remaining
                0x00000000       0x10 contiki-cc13xx.a(timer.o)
 .text          0x00000000        0x0 contiki-cc13xx.a(serial-line.o)
 .data          0x00000000        0x0 contiki-cc13xx.a(serial-line.o)
 .bss           0x00000000        0x0 contiki-cc13xx.a(serial-line.o)
 .text.process_thread_serial_line_process
                0x00000000       0xb4 contiki-cc13xx.a(serial-line.o)
 .text.serial_line_init
                0x00000000       0x24 contiki-cc13xx.a(serial-line.o)
 .text.serial_line_input_byte
                0x00000000       0x54 contiki-cc13xx.a(serial-line.o)
 .bss.rxbuf     0x00000000        0x8 contiki-cc13xx.a(serial-line.o)
 .bss.rxbuf_data
                0x00000000       0x80 contiki-cc13xx.a(serial-line.o)
 .bss.overflow.5561
                0x00000000        0x1 contiki-cc13xx.a(serial-line.o)
 .bss.ptr.5568  0x00000000        0x4 contiki-cc13xx.a(serial-line.o)
 .bss.buf.5567  0x00000000       0x80 contiki-cc13xx.a(serial-line.o)
 .data.serial_line_process
                0x00000000       0x10 contiki-cc13xx.a(serial-line.o)
 .text          0x00000000        0x0 contiki-cc13xx.a(leds.o)
 .data          0x00000000        0x0 contiki-cc13xx.a(leds.o)
 .bss           0x00000000        0x0 contiki-cc13xx.a(leds.o)
 .text.leds_blink
                0x00000000       0x28 contiki-cc13xx.a(leds.o)
 .text.leds_get
                0x00000000        0x4 contiki-cc13xx.a(leds.o)
 .text.leds_set
                0x00000000        0x4 contiki-cc13xx.a(leds.o)
 .text.leds_on  0x00000000       0x10 contiki-cc13xx.a(leds.o)
 .text.leds_toggle
                0x00000000       0x10 contiki-cc13xx.a(leds.o)
 .text          0x00000000        0x0 contiki-cc13xx.a(list.o)
 .data          0x00000000        0x0 contiki-cc13xx.a(list.o)
 .bss           0x00000000        0x0 contiki-cc13xx.a(list.o)
 .text.list_copy
                0x00000000        0x8 contiki-cc13xx.a(list.o)
 .text.list_tail
                0x00000000       0x14 contiki-cc13xx.a(list.o)
 .text.list_chop
                0x00000000       0x24 contiki-cc13xx.a(list.o)
 .text.list_pop
                0x00000000        0xc contiki-cc13xx.a(list.o)
 .text.list_insert
                0x00000000       0x10 contiki-cc13xx.a(list.o)
 .text          0x00000000        0x0 contiki-cc13xx.a(ringbuf.o)
 .data          0x00000000        0x0 contiki-cc13xx.a(ringbuf.o)
 .bss           0x00000000        0x0 contiki-cc13xx.a(ringbuf.o)
 .text.ringbuf_size
                0x00000000        0x8 contiki-cc13xx.a(ringbuf.o)
 .text          0x00000000        0x0 contiki-cc13xx.a(uip-ds6.o)
 .data          0x00000000        0x0 contiki-cc13xx.a(uip-ds6.o)
 .bss           0x00000000        0x0 contiki-cc13xx.a(uip-ds6.o)
 .text.uip_ds6_prefix_rm
                0x00000000        0x8 contiki-cc13xx.a(uip-ds6.o)
 .text.uip_ds6_prefix_lookup
                0x00000000       0x2c contiki-cc13xx.a(uip-ds6.o)
 .text.uip_ds6_get_global
                0x00000000       0x44 contiki-cc13xx.a(uip-ds6.o)
 .text.uip_ds6_maddr_rm
                0x00000000        0x8 contiki-cc13xx.a(uip-ds6.o)
 .text.uip_ds6_aaddr_add
                0x00000000       0x50 contiki-cc13xx.a(uip-ds6.o)
 .text.uip_ds6_aaddr_rm
                0x00000000        0x8 contiki-cc13xx.a(uip-ds6.o)
 .text.uip_ds6_aaddr_lookup
                0x00000000       0x30 contiki-cc13xx.a(uip-ds6.o)
 .text.get_match_length
                0x00000000       0x48 contiki-cc13xx.a(uip-ds6.o)
 .bss.locaaddr  0x00000000        0x4 contiki-cc13xx.a(uip-ds6.o)
 .text          0x00000000        0x0 contiki-cc13xx.a(uip-ds6-route.o)
 .data          0x00000000        0x0 contiki-cc13xx.a(uip-ds6-route.o)
 .bss           0x00000000        0x0 contiki-cc13xx.a(uip-ds6-route.o)
 .text.uip_ds6_notification_add
                0x00000000       0x14 contiki-cc13xx.a(uip-ds6-route.o)
 .text.uip_ds6_notification_rm
                0x00000000        0xc contiki-cc13xx.a(uip-ds6-route.o)
 .text          0x00000000        0x0 contiki-cc13xx.a(uip6.o)
 .data          0x00000000        0x0 contiki-cc13xx.a(uip6.o)
 .bss           0x00000000        0x0 contiki-cc13xx.a(uip6.o)
 .text.uip_chksum
                0x00000000       0x14 contiki-cc13xx.a(uip6.o)
 .text.uip_ipchksum
                0x00000000       0x20 contiki-cc13xx.a(uip6.o)
 .text.uip_udpchksum
                0x00000000        0x8 contiki-cc13xx.a(uip6.o)
 .text.uip_htonl
                0x00000000       0x14 contiki-cc13xx.a(uip6.o)
 .text.uip_send
                0x00000000       0x4c contiki-cc13xx.a(uip6.o)
 .text          0x00000000        0x0 contiki-cc13xx.a(uip-ds6-nbr.o)
 .data          0x00000000        0x0 contiki-cc13xx.a(uip-ds6-nbr.o)
 .bss           0x00000000        0x0 contiki-cc13xx.a(uip-ds6-nbr.o)
 .text.uip_ds6_nbr_get_ipaddr
                0x00000000        0x4 contiki-cc13xx.a(uip-ds6-nbr.o)
 .text.uip_ds6_nbr_ll_lookup
                0x00000000       0x10 contiki-cc13xx.a(uip-ds6-nbr.o)
 .text.uip_ds6_get_least_lifetime_neighbor
                0x00000000       0x48 contiki-cc13xx.a(uip-ds6-nbr.o)
 .text          0x00000000        0x0 contiki-cc13xx.a(uip-nd6.o)
 .data          0x00000000        0x0 contiki-cc13xx.a(uip-nd6.o)
 .bss           0x00000000        0x0 contiki-cc13xx.a(uip-nd6.o)
 .text          0x00000000        0x0 contiki-cc13xx.a(sicslowpan.o)
 .data          0x00000000        0x0 contiki-cc13xx.a(sicslowpan.o)
 .bss           0x00000000        0x0 contiki-cc13xx.a(sicslowpan.o)
 .text.rime_sniffer_add
                0x00000000        0xc contiki-cc13xx.a(sicslowpan.o)
 .text.rime_sniffer_remove
                0x00000000        0xc contiki-cc13xx.a(sicslowpan.o)
 .text.sicslowpan_get_last_rssi
                0x00000000        0xc contiki-cc13xx.a(sicslowpan.o)
 .text          0x00000000        0x0 contiki-cc13xx.a(uip-debug.o)
 .data          0x00000000        0x0 contiki-cc13xx.a(uip-debug.o)
 .bss           0x00000000        0x0 contiki-cc13xx.a(uip-debug.o)
 .text.uip_debug_lladdr_print
                0x00000000       0x40 contiki-cc13xx.a(uip-debug.o)
 .text          0x00000000        0x0 contiki-cc13xx.a(uip-udp-packet.)
 .data          0x00000000        0x0 contiki-cc13xx.a(uip-udp-packet.)
 .bss           0x00000000        0x0 contiki-cc13xx.a(uip-udp-packet.)
 .text.uip_udp_packet_send
                0x00000000       0x14 contiki-cc13xx.a(uip-udp-packet.)
 .text          0x00000000        0x0 contiki-cc13xx.a(tcpip.o)
 .data          0x00000000        0x0 contiki-cc13xx.a(tcpip.o)
 .bss           0x00000000        0x0 contiki-cc13xx.a(tcpip.o)
 .text.udp_attach
                0x00000000       0x10 contiki-cc13xx.a(tcpip.o)
 .text.udp_broadcast_new
                0x00000000       0x50 contiki-cc13xx.a(tcpip.o)
 .text.icmp6_new
                0x00000000       0x20 contiki-cc13xx.a(tcpip.o)
 .text.tcpip_poll_udp
                0x00000000       0x10 contiki-cc13xx.a(tcpip.o)
 .text          0x00000000        0x0 contiki-cc13xx.a(rpl-dag.o)
 .data          0x00000000        0x0 contiki-cc13xx.a(rpl-dag.o)
 .bss           0x00000000        0x0 contiki-cc13xx.a(rpl-dag.o)
 .text.rpl_get_parent
                0x00000000       0x10 contiki-cc13xx.a(rpl-dag.o)
 .text.rpl_get_parent_rank
                0x00000000       0x18 contiki-cc13xx.a(rpl-dag.o)
 .text.rpl_get_parent_link_metric
                0x00000000       0x18 contiki-cc13xx.a(rpl-dag.o)
 .text.rpl_repair_root
                0x00000000       0x5c contiki-cc13xx.a(rpl-dag.o)
 .text.rpl_set_default_instance
                0x00000000        0xc contiki-cc13xx.a(rpl-dag.o)
 .text.rpl_get_default_instance
                0x00000000        0xc contiki-cc13xx.a(rpl-dag.o)
 .text.rpl_find_parent
                0x00000000       0x18 contiki-cc13xx.a(rpl-dag.o)
 .text.rpl_set_root
                0x00000000      0x128 contiki-cc13xx.a(rpl-dag.o)
 .text.rpl_find_of
                0x00000000       0x14 contiki-cc13xx.a(rpl-dag.o)
 .text          0x00000000        0x0 contiki-cc13xx.a(rpl-timers.o)
 .data          0x00000000        0x0 contiki-cc13xx.a(rpl-timers.o)
 .bss           0x00000000        0x0 contiki-cc13xx.a(rpl-timers.o)
 .text.handle_unicast_dio_timer
                0x00000000       0x1c contiki-cc13xx.a(rpl-timers.o)
 .text.rpl_schedule_unicast_dio_immediately
                0x00000000       0x10 contiki-cc13xx.a(rpl-timers.o)
 .text          0x00000000        0x0 contiki-cc13xx.a(rpl.o)
 .data          0x00000000        0x0 contiki-cc13xx.a(rpl.o)
 .bss           0x00000000        0x0 contiki-cc13xx.a(rpl.o)
 .text.rpl_get_mode
                0x00000000        0x4 contiki-cc13xx.a(rpl.o)
 .text          0x00000000        0x0 contiki-cc13xx.a(rpl-mrhof.o)
 .data          0x00000000        0x0 contiki-cc13xx.a(rpl-mrhof.o)
 .bss           0x00000000        0x0 contiki-cc13xx.a(rpl-mrhof.o)
 .text          0x00000000        0x0 contiki-cc13xx.a(setup.o)
 .data          0x00000000        0x0 contiki-cc13xx.a(setup.o)
 .bss           0x00000000        0x0 contiki-cc13xx.a(setup.o)
 .text          0x00000000        0x0 contiki-cc13xx.a(osc.o)
 .data          0x00000000        0x0 contiki-cc13xx.a(osc.o)
 .bss           0x00000000        0x0 contiki-cc13xx.a(osc.o)
 .text.NOROM_OSCHF_GetStartupTime
                0x00000000       0x98 contiki-cc13xx.a(osc.o)
 .text.NOROM_OSCHF_TurnOnXosc
                0x00000000       0x18 contiki-cc13xx.a(osc.o)
 .text.NOROM_OSCHF_AttemptToSwitchToXosc
                0x00000000       0x64 contiki-cc13xx.a(osc.o)
 .text.NOROM_OSCHF_SwitchToRcOscTurnOffXosc
                0x00000000       0x34 contiki-cc13xx.a(osc.o)
 .text.NOROM_OSC_HPOSCRelativeFrequencyOffsetGet
                0x00000000       0x44 contiki-cc13xx.a(osc.o)
 .text.NOROM_OSC_HPOSCRelativeFrequencyOffsetToRFCoreFormatConvert
                0x00000000        0xc contiki-cc13xx.a(osc.o)
 .text.NOROM_OSCHF_DebugGetCrystalAmplitude
                0x00000000       0x38 contiki-cc13xx.a(osc.o)
 .text.NOROM_OSCHF_DebugGetExpectedAverageCrystalAmplitude
                0x00000000       0x1c contiki-cc13xx.a(osc.o)
 .bss.oscHfGlobals
                0x00000000       0x14 contiki-cc13xx.a(osc.o)
 .text          0x00000000        0x0 contiki-cc13xx.a(setup_rom.o)
 .data          0x00000000        0x0 contiki-cc13xx.a(setup_rom.o)
 .bss           0x00000000        0x0 contiki-cc13xx.a(setup_rom.o)
 .text.NOROM_SetupGetTrimForRcOscLfRtuneCtuneTrim
                0x00000000       0x18 contiki-cc13xx.a(setup_rom.o)
 .text.NOROM_SetupGetTrimForXoscHfIbiastherm
                0x00000000       0x10 contiki-cc13xx.a(setup_rom.o)
 .text.NOROM_SetupGetTrimForAmpcompTh2
                0x00000000       0x10 contiki-cc13xx.a(setup_rom.o)
 .text.NOROM_SetupGetTrimForAmpcompTh1
                0x00000000       0x14 contiki-cc13xx.a(setup_rom.o)
 .text.NOROM_SetupGetTrimForDblrLoopFilterResetVoltage
                0x00000000       0x14 contiki-cc13xx.a(setup_rom.o)
 .text.NOROM_SetupGetTrimForAdcShModeEn
                0x00000000       0x14 contiki-cc13xx.a(setup_rom.o)
 .text.NOROM_SetupGetTrimForAdcShVbufEn
                0x00000000       0x14 contiki-cc13xx.a(setup_rom.o)
 .text.NOROM_SetupGetTrimForXoscHfCtl
                0x00000000        0xc contiki-cc13xx.a(setup_rom.o)
 .text.NOROM_SetupGetTrimForXoscHfFastStart
                0x00000000       0x10 contiki-cc13xx.a(setup_rom.o)
 .text.NOROM_SetupGetTrimForRadcExtCfg
                0x00000000       0x10 contiki-cc13xx.a(setup_rom.o)
 .text.NOROM_SetupGetTrimForRcOscLfIBiasTrim
                0x00000000       0x14 contiki-cc13xx.a(setup_rom.o)
 .text.NOROM_SetupGetTrimForXoscLfRegulatorAndCmirrwrRatio
                0x00000000       0x14 contiki-cc13xx.a(setup_rom.o)
 .text.NOROM_SetupSetAonRtcSubSecInc
                0x00000000       0x38 contiki-cc13xx.a(setup_rom.o)
 .text          0x00000000        0x0 contiki-cc13xx.a(cpu.o)
 .data          0x00000000        0x0 contiki-cc13xx.a(cpu.o)
 .bss           0x00000000        0x0 contiki-cc13xx.a(cpu.o)
 .text.NOROM_CPUprimask
                0x00000000        0x8 contiki-cc13xx.a(cpu.o)
 .text.NOROM_CPUbasepriGet
                0x00000000        0x8 contiki-cc13xx.a(cpu.o)
 .text.NOROM_CPUdelay
                0x00000000        0x8 contiki-cc13xx.a(cpu.o)
 .text          0x00000000        0x0 contiki-cc13xx.a(ddi.o)
 .data          0x00000000        0x0 contiki-cc13xx.a(ddi.o)
 .bss           0x00000000        0x0 contiki-cc13xx.a(ddi.o)
 .text.NOROM_DDI16BitWrite
                0x00000000       0x48 contiki-cc13xx.a(ddi.o)
 .text.NOROM_DDI16BitfieldWrite
                0x00000000       0x4c contiki-cc13xx.a(ddi.o)
 .text.NOROM_DDI16BitRead
                0x00000000       0x38 contiki-cc13xx.a(ddi.o)
 .text.NOROM_DDI16BitfieldRead
                0x00000000       0x48 contiki-cc13xx.a(ddi.o)
 .text          0x00000000        0x0 contiki-cc13xx.a(rfc.o)
 .data          0x00000000        0x0 contiki-cc13xx.a(rfc.o)
 .bss           0x00000000        0x0 contiki-cc13xx.a(rfc.o)
 .text.NOROM_RFCCpeIntGetAndClear
                0x00000000       0x14 contiki-cc13xx.a(rfc.o)
 .text.NOROM_RFCDoorbellSendTo
                0x00000000       0x38 contiki-cc13xx.a(rfc.o)
 .text.NOROM_RFCSynthPowerDown
                0x00000000       0x5c contiki-cc13xx.a(rfc.o)
 .text.NOROM_RFCRfTrimRead
                0x00000000      0x14c contiki-cc13xx.a(rfc.o)
 .text.NOROM_RFCRfTrimSet
                0x00000000       0x1c contiki-cc13xx.a(rfc.o)
 .text.NOROM_RFCCPEPatchReset
                0x00000000       0xa0 contiki-cc13xx.a(rfc.o)
 .text          0x00000000        0x0 contiki-cc13xx.a(chipinfo.o)
 .data          0x00000000        0x0 contiki-cc13xx.a(chipinfo.o)
 .bss           0x00000000        0x0 contiki-cc13xx.a(chipinfo.o)
 .text.NOROM_ChipInfo_GetSupportedProtocol_BV
                0x00000000       0x10 contiki-cc13xx.a(chipinfo.o)
 .text.NOROM_ChipInfo_GetPackageType
                0x00000000       0x18 contiki-cc13xx.a(chipinfo.o)
 .text          0x00000000        0x0 contiki-cc13xx.a(adi.o)
 .data          0x00000000        0x0 contiki-cc13xx.a(adi.o)
 .bss           0x00000000        0x0 contiki-cc13xx.a(adi.o)
 .text.SafeHapiAuxAdiSelect
                0x00000000       0x30 contiki-cc13xx.a(adi.o)
 .text          0x00000000        0x0 contiki-cc13xx.a(sys_ctrl.o)
 .data          0x00000000        0x0 contiki-cc13xx.a(sys_ctrl.o)
 .bss           0x00000000        0x0 contiki-cc13xx.a(sys_ctrl.o)
 .text.NOROM_SysCtrlPowerEverything
                0x00000000       0xf4 contiki-cc13xx.a(sys_ctrl.o)
 .text.NOROM_SysCtrlResetSourceGet
                0x00000000       0x18 contiki-cc13xx.a(sys_ctrl.o)
 .rodata.g_pui32ModuleCG
                0x00000000       0x34 contiki-cc13xx.a(sys_ctrl.o)
 .text          0x00000000        0x0 contiki-cc13xx.a(pwr_ctrl.o)
 .data          0x00000000        0x0 contiki-cc13xx.a(pwr_ctrl.o)
 .bss           0x00000000        0x0 contiki-cc13xx.a(pwr_ctrl.o)
 .text          0x00000000        0x0 contiki-cc13xx.a(trng.o)
 .data          0x00000000        0x0 contiki-cc13xx.a(trng.o)
 .bss           0x00000000        0x0 contiki-cc13xx.a(trng.o)
 .text.NOROM_TRNGNumberGet
                0x00000000       0x20 contiki-cc13xx.a(trng.o)
 .text          0x00000000        0x0 contiki-cc13xx.a(aon_rtc.o)
 .data          0x00000000        0x0 contiki-cc13xx.a(aon_rtc.o)
 .bss           0x00000000        0x0 contiki-cc13xx.a(aon_rtc.o)
 .text.NOROM_AONRTCCurrent64BitValueGet
                0x00000000       0x20 contiki-cc13xx.a(aon_rtc.o)
 .text          0x00000000        0x0 contiki-cc13xx.a(aon_batmon.o)
 .data          0x00000000        0x0 contiki-cc13xx.a(aon_batmon.o)
 .bss           0x00000000        0x0 contiki-cc13xx.a(aon_batmon.o)
 .text          0x00000000        0x0 contiki-cc13xx.a(orpl-bitmap.o)
 .data          0x00000000        0x0 contiki-cc13xx.a(orpl-bitmap.o)
 .bss           0x00000000        0x0 contiki-cc13xx.a(orpl-bitmap.o)
 .text.orpl_bitmap_limit_networking
                0x00000000       0x28 contiki-cc13xx.a(orpl-bitmap.o)
 .text.orpl_bitmap_panid_limit
                0x00000000       0x1c contiki-cc13xx.a(orpl-bitmap.o)
 .text.orpl_get_parent_linkaddr
                0x00000000       0x1c contiki-cc13xx.a(orpl-bitmap.o)
 .text          0x00000000        0x0 contiki-cc13xx.a(queuebuf.o)
 .data          0x00000000        0x0 contiki-cc13xx.a(queuebuf.o)
 .bss           0x00000000        0x0 contiki-cc13xx.a(queuebuf.o)
 .text.queuebuf_numfree
                0x00000000        0xc contiki-cc13xx.a(queuebuf.o)
 .text.queuebuf_dataptr
                0x00000000       0x18 contiki-cc13xx.a(queuebuf.o)
 .text.queuebuf_datalen
                0x00000000        0x8 contiki-cc13xx.a(queuebuf.o)
 .text.queuebuf_addr
                0x00000000        0xc contiki-cc13xx.a(queuebuf.o)
 .text.queuebuf_debug_print
                0x00000000        0x4 contiki-cc13xx.a(queuebuf.o)
 .text          0x00000000        0x0 contiki-cc13xx.a(nbr-table.o)
 .data          0x00000000        0x0 contiki-cc13xx.a(nbr-table.o)
 .bss           0x00000000        0x0 contiki-cc13xx.a(nbr-table.o)
 .text          0x00000000        0x0 contiki-cc13xx.a(packetbuf.o)
 .data          0x00000000        0x0 contiki-cc13xx.a(packetbuf.o)
 .bss           0x00000000        0x0 contiki-cc13xx.a(packetbuf.o)
 .text.packetbuf_clear_hdr
                0x00000000        0xc contiki-cc13xx.a(packetbuf.o)
 .text.packetbuf_compact
                0x00000000       0x38 contiki-cc13xx.a(packetbuf.o)
 .text.packetbuf_copyto_hdr
                0x00000000       0x20 contiki-cc13xx.a(packetbuf.o)
 .text.packetbuf_hdr_remove
                0x00000000       0x10 contiki-cc13xx.a(packetbuf.o)
 .text.packetbuf_hdrlen
                0x00000000       0x1c contiki-cc13xx.a(packetbuf.o)
 .text          0x00000000        0x0 contiki-cc13xx.a(netstack.o)
 .data          0x00000000        0x0 contiki-cc13xx.a(netstack.o)
 .bss           0x00000000        0x0 contiki-cc13xx.a(netstack.o)
 .text          0x00000000        0x0 contiki-cc13xx.a(linkaddr.o)
 .data          0x00000000        0x0 contiki-cc13xx.a(linkaddr.o)
 .bss           0x00000000        0x0 contiki-cc13xx.a(linkaddr.o)
 .text.linkaddr_set_node_addr
                0x00000000       0x10 contiki-cc13xx.a(linkaddr.o)
 .text          0x00000000        0x0 contiki-cc13xx.a(framer-802154.o)
 .data          0x00000000        0x0 contiki-cc13xx.a(framer-802154.o)
 .bss           0x00000000        0x0 contiki-cc13xx.a(framer-802154.o)
 .text          0x00000000        0x0 contiki-cc13xx.a(csma.o)
 .data          0x00000000        0x0 contiki-cc13xx.a(csma.o)
 .bss           0x00000000        0x0 contiki-cc13xx.a(csma.o)
 .text          0x00000000        0x0 contiki-cc13xx.a(frame802154.o)
 .data          0x00000000        0x0 contiki-cc13xx.a(frame802154.o)
 .bss           0x00000000        0x0 contiki-cc13xx.a(frame802154.o)
 .text          0x00000000        0x0 contiki-cc13xx.a(mac.o)
 .data          0x00000000        0x0 contiki-cc13xx.a(mac.o)
 .bss           0x00000000        0x0 contiki-cc13xx.a(mac.o)
 .text          0x00000000        0x0 contiki-cc13xx.a(contikimac-fcf.)
 .data          0x00000000        0x0 contiki-cc13xx.a(contikimac-fcf.)
 .bss           0x00000000        0x0 contiki-cc13xx.a(contikimac-fcf.)
 .text.set_rdc_active_channel_check_rate
                0x00000000       0x54 contiki-cc13xx.a(contikimac-fcf.)
 .text.set_rdc_inactive_channel_check_interval
                0x00000000       0x28 contiki-cc13xx.a(contikimac-fcf.)
 .text.get_rdc_inactive_channel_check_interval
                0x00000000        0xc contiki-cc13xx.a(contikimac-fcf.)
 .text.rdc_turn_radio_off
                0x00000000       0x28 contiki-cc13xx.a(contikimac-fcf.)
 .text.contikimac_debug_print
                0x00000000        0x4 contiki-cc13xx.a(contikimac-fcf.)
 .data.rdc_inactive_channel_check_interval
                0x00000000        0x1 contiki-cc13xx.a(contikimac-fcf.)
 .data.rdc_channel_check_interval
                0x00000000        0x2 contiki-cc13xx.a(contikimac-fcf.)
 .text          0x00000000        0x0 contiki-cc13xx.a(nullsec.o)
 .data          0x00000000        0x0 contiki-cc13xx.a(nullsec.o)
 .bss           0x00000000        0x0 contiki-cc13xx.a(nullsec.o)
 .text          0x00000000        0x0 contiki-cc13xx.a(rnfd-root.o)
 .data          0x00000000        0x0 contiki-cc13xx.a(rnfd-root.o)
 .bss           0x00000000        0x0 contiki-cc13xx.a(rnfd-root.o)
 .text.rnfd_request_info
                0x00000000        0x4 contiki-cc13xx.a(rnfd-root.o)
 .text          0x00000000        0x0 contiki-cc13xx.a(rnfd.o)
 .data          0x00000000        0x0 contiki-cc13xx.a(rnfd.o)
 .bss           0x00000000        0x0 contiki-cc13xx.a(rnfd.o)
 .text.set_rnfd_start_flag
                0x00000000        0xc contiki-cc13xx.a(rnfd.o)
 .text.rnfd_info_del_info
                0x00000000       0x20 contiki-cc13xx.a(rnfd.o)
 .text          0x00000000        0x0 contiki-cc13xx.a(udp-fragment.o)
 .data          0x00000000        0x0 contiki-cc13xx.a(udp-fragment.o)
 .bss           0x00000000        0x0 contiki-cc13xx.a(udp-fragment.o)
 .text          0x00000000        0x0 contiki-cc13xx.a(auto-sleep.o)
 .data          0x00000000        0x0 contiki-cc13xx.a(auto-sleep.o)
 .bss           0x00000000        0x0 contiki-cc13xx.a(auto-sleep.o)
 .text.packet_input_auto_sleep
                0x00000000        0x4 contiki-cc13xx.a(auto-sleep.o)
 .text          0x00000000        0x0 contiki-cc13xx.a(netsynch.o)
 .data          0x00000000        0x0 contiki-cc13xx.a(netsynch.o)
 .bss           0x00000000        0x0 contiki-cc13xx.a(netsynch.o)
 .text.netsynch_authority_level
                0x00000000        0xc contiki-cc13xx.a(netsynch.o)
 .text.netsynch_set_authority_level
                0x00000000        0xc contiki-cc13xx.a(netsynch.o)
 .text.netsynch_time
                0x00000000       0x10 contiki-cc13xx.a(netsynch.o)
 .text.schedule_bitmap_set_new
                0x00000000       0x1c contiki-cc13xx.a(netsynch.o)
 .text.set_recvmsg
                0x00000000       0x34 contiki-cc13xx.a(netsynch.o)
 .text.get_recvmsg
                0x00000000       0x24 contiki-cc13xx.a(netsynch.o)
 .text.get_lastseqnum
                0x00000000        0xc contiki-cc13xx.a(netsynch.o)
 .text.init_concentrator_ipv6addr
                0x00000000       0x24 contiki-cc13xx.a(netsynch.o)
 .text.get_concentrator_ipv6addr
                0x00000000        0x8 contiki-cc13xx.a(netsynch.o)
 .text.set_concentrator_ipv6addr
                0x00000000       0x1c contiki-cc13xx.a(netsynch.o)
 .text          0x00000000        0x0 contiki-cc13xx.a(netsync-auto-ca)
 .data          0x00000000        0x0 contiki-cc13xx.a(netsync-auto-ca)
 .bss           0x00000000        0x0 contiki-cc13xx.a(netsync-auto-ca)
 .text          0x00000000        0x0 contiki-cc13xx.a(wake-common.o)
 .data          0x00000000        0x0 contiki-cc13xx.a(wake-common.o)
 .bss           0x00000000        0x0 contiki-cc13xx.a(wake-common.o)
 .text          0x00000000        0x0 contiki-cc13xx.a(low-latency.o)
 .data          0x00000000        0x0 contiki-cc13xx.a(low-latency.o)
 .bss           0x00000000        0x0 contiki-cc13xx.a(low-latency.o)
 .text.set_low_latency_interval
                0x00000000        0xc contiki-cc13xx.a(low-latency.o)
 .text.get_low_latency_interval
                0x00000000        0xc contiki-cc13xx.a(low-latency.o)
 .text.set_low_latency_active_second
                0x00000000        0xc contiki-cc13xx.a(low-latency.o)
 .text.get_low_latency_active_second
                0x00000000        0xc contiki-cc13xx.a(low-latency.o)
 .text.get_low_latency_active_time
                0x00000000        0xc contiki-cc13xx.a(low-latency.o)
 .text          0x00000000        0x0 contiki-cc13xx.a(flashdata.o)
 .data          0x00000000        0x0 contiki-cc13xx.a(flashdata.o)
 .bss           0x00000000        0x0 contiki-cc13xx.a(flashdata.o)
 .text          0x00000000        0x0 contiki-cc13xx.a(smartrf-setting)
 .data          0x00000000        0x0 contiki-cc13xx.a(smartrf-setting)
 .bss           0x00000000        0x0 contiki-cc13xx.a(smartrf-setting)
 .text          0x00000000        0x0 contiki-cc13xx.a(aux-ctrl.o)
 .data          0x00000000        0x0 contiki-cc13xx.a(aux-ctrl.o)
 .bss           0x00000000        0x0 contiki-cc13xx.a(aux-ctrl.o)
 .text          0x00000000        0x0 contiki-cc13xx.a(fcf.o)
 .data          0x00000000        0x0 contiki-cc13xx.a(fcf.o)
 .bss           0x00000000        0x0 contiki-cc13xx.a(fcf.o)
 .text.get_receive_count
                0x00000000        0xc contiki-cc13xx.a(fcf.o)
 .text          0x00000000        0x0 contiki-cc13xx.a(stimer.o)
 .data          0x00000000        0x0 contiki-cc13xx.a(stimer.o)
 .bss           0x00000000        0x0 contiki-cc13xx.a(stimer.o)
 .text.stimer_reset
                0x00000000        0xc contiki-cc13xx.a(stimer.o)
 .text.stimer_restart
                0x00000000        0xc contiki-cc13xx.a(stimer.o)
 .text.stimer_remaining
                0x00000000       0x10 contiki-cc13xx.a(stimer.o)
 .text.stimer_elapsed
                0x00000000       0x10 contiki-cc13xx.a(stimer.o)
 .text          0x00000000        0x0 contiki-cc13xx.a(memb.o)
 .data          0x00000000        0x0 contiki-cc13xx.a(memb.o)
 .bss           0x00000000        0x0 contiki-cc13xx.a(memb.o)
 .text.memb_numfree
                0x00000000       0x1c contiki-cc13xx.a(memb.o)
 .text          0x00000000        0x0 contiki-cc13xx.a(uip-icmp6.o)
 .data          0x00000000        0x0 contiki-cc13xx.a(uip-icmp6.o)
 .bss           0x00000000        0x0 contiki-cc13xx.a(uip-icmp6.o)
 .text          0x00000000        0x0 contiki-cc13xx.a(rpl-icmp6.o)
 .data          0x00000000        0x0 contiki-cc13xx.a(rpl-icmp6.o)
 .bss           0x00000000        0x0 contiki-cc13xx.a(rpl-icmp6.o)
 .text          0x00000000        0x0 contiki-cc13xx.a(flash.o)
 .data          0x00000000        0x0 contiki-cc13xx.a(flash.o)
 .bss           0x00000000        0x0 contiki-cc13xx.a(flash.o)
 .text.NOROM_FlashPowerModeSet
                0x00000000       0xb0 contiki-cc13xx.a(flash.o)
 .text.NOROM_FlashPowerModeGet
                0x00000000       0x1c contiki-cc13xx.a(flash.o)
 .text.NOROM_FlashProtectionSet
                0x00000000       0x6c contiki-cc13xx.a(flash.o)
 .text.NOROM_FlashProtectionGet
                0x00000000       0x6c contiki-cc13xx.a(flash.o)
 .text.NOROM_FlashProtectionSave
                0x00000000       0x84 contiki-cc13xx.a(flash.o)
 .text.NOROM_FlashEfuseReadRow
                0x00000000       0x74 contiki-cc13xx.a(flash.o)
 .text.NOROM_FlashDisableSectorsForWrite
                0x00000000      0x10c contiki-cc13xx.a(flash.o)
 .text.MemBusWrkAroundHapiProgramFlash
                0x00000000       0x18 contiki-cc13xx.a(flash.o)
 .text.MemBusWrkAroundHapiEraseSector
                0x00000000       0x18 contiki-cc13xx.a(flash.o)
 .rodata.g_pui8CcfgDefaultSec
                0x00000000       0x14 contiki-cc13xx.a(flash.o)
 .text          0x00000000        0x0 contiki-cc13xx.a(vims.o)
 .data          0x00000000        0x0 contiki-cc13xx.a(vims.o)
 .bss           0x00000000        0x0 contiki-cc13xx.a(vims.o)
 .text.NOROM_VIMSConfigure
                0x00000000       0x18 contiki-cc13xx.a(vims.o)
 .text.NOROM_VIMSModeSet
                0x00000000       0x10 contiki-cc13xx.a(vims.o)
 .text.NOROM_VIMSModeSafeSet
                0x00000000       0x50 contiki-cc13xx.a(vims.o)
 .text          0x00000000        0x0 contiki-cc13xx.a(mac-sequence.o)
 .data          0x00000000        0x0 contiki-cc13xx.a(mac-sequence.o)
 .bss           0x00000000        0x0 contiki-cc13xx.a(mac-sequence.o)
 .text          0x00000000        0x0 contiki-cc13xx.a(rnfd-icmp6.o)
 .data          0x00000000        0x0 contiki-cc13xx.a(rnfd-icmp6.o)
 .bss           0x00000000        0x0 contiki-cc13xx.a(rnfd-icmp6.o)
 .text.rnfd_request_out
                0x00000000       0x7c contiki-cc13xx.a(rnfd-icmp6.o)
 .text          0x00000000        0x0 contiki-cc13xx.a(wake-dev.o)
 .data          0x00000000        0x0 contiki-cc13xx.a(wake-dev.o)
 .bss           0x00000000        0x0 contiki-cc13xx.a(wake-dev.o)
 .text.wake_dev_send
                0x00000000       0x50 contiki-cc13xx.a(wake-dev.o)
 .text          0x00000000        0x0 contiki-cc13xx.a(wake-node.o)
 .data          0x00000000        0x0 contiki-cc13xx.a(wake-node.o)
 .bss           0x00000000        0x0 contiki-cc13xx.a(wake-node.o)
 .data          0x00000000        0x0 /opt/my1310ARM/toolchain/gcc-arm-none-eabi-4_9-2015q3/bin/../lib/gcc/arm-none-eabi/4.9.3/armv7-m/libgcc.a(_aeabi_uldivmod.o)
 .bss           0x00000000        0x0 /opt/my1310ARM/toolchain/gcc-arm-none-eabi-4_9-2015q3/bin/../lib/gcc/arm-none-eabi/4.9.3/armv7-m/libgcc.a(_aeabi_uldivmod.o)
 .data          0x00000000        0x0 /opt/my1310ARM/toolchain/gcc-arm-none-eabi-4_9-2015q3/bin/../lib/gcc/arm-none-eabi/4.9.3/armv7-m/libgcc.a(bpabi.o)
 .bss           0x00000000        0x0 /opt/my1310ARM/toolchain/gcc-arm-none-eabi-4_9-2015q3/bin/../lib/gcc/arm-none-eabi/4.9.3/armv7-m/libgcc.a(bpabi.o)
 .data          0x00000000        0x0 /opt/my1310ARM/toolchain/gcc-arm-none-eabi-4_9-2015q3/bin/../lib/gcc/arm-none-eabi/4.9.3/armv7-m/libgcc.a(_dvmd_tls.o)
 .bss           0x00000000        0x0 /opt/my1310ARM/toolchain/gcc-arm-none-eabi-4_9-2015q3/bin/../lib/gcc/arm-none-eabi/4.9.3/armv7-m/libgcc.a(_dvmd_tls.o)
 .data          0x00000000        0x0 /opt/my1310ARM/toolchain/gcc-arm-none-eabi-4_9-2015q3/bin/../lib/gcc/arm-none-eabi/4.9.3/armv7-m/libgcc.a(_divdi3.o)
 .bss           0x00000000        0x0 /opt/my1310ARM/toolchain/gcc-arm-none-eabi-4_9-2015q3/bin/../lib/gcc/arm-none-eabi/4.9.3/armv7-m/libgcc.a(_divdi3.o)
 .ARM.extab     0x00000000        0x0 /opt/my1310ARM/toolchain/gcc-arm-none-eabi-4_9-2015q3/bin/../lib/gcc/arm-none-eabi/4.9.3/armv7-m/libgcc.a(_divdi3.o)
 .data          0x00000000        0x0 /opt/my1310ARM/toolchain/gcc-arm-none-eabi-4_9-2015q3/bin/../lib/gcc/arm-none-eabi/4.9.3/armv7-m/libgcc.a(_udivdi3.o)
 .bss           0x00000000        0x0 /opt/my1310ARM/toolchain/gcc-arm-none-eabi-4_9-2015q3/bin/../lib/gcc/arm-none-eabi/4.9.3/armv7-m/libgcc.a(_udivdi3.o)
 .ARM.extab     0x00000000        0x0 /opt/my1310ARM/toolchain/gcc-arm-none-eabi-4_9-2015q3/bin/../lib/gcc/arm-none-eabi/4.9.3/armv7-m/libgcc.a(_udivdi3.o)
 .text          0x00000000        0x0 /opt/my1310ARM/toolchain/gcc-arm-none-eabi-4_9-2015q3/bin/../lib/gcc/arm-none-eabi/4.9.3/../../../../arm-none-eabi/lib/armv7-m/libc.a(lib_a-malloc.o)
 .data          0x00000000        0x0 /opt/my1310ARM/toolchain/gcc-arm-none-eabi-4_9-2015q3/bin/../lib/gcc/arm-none-eabi/4.9.3/../../../../arm-none-eabi/lib/armv7-m/libc.a(lib_a-malloc.o)
 .bss           0x00000000        0x0 /opt/my1310ARM/toolchain/gcc-arm-none-eabi-4_9-2015q3/bin/../lib/gcc/arm-none-eabi/4.9.3/../../../../arm-none-eabi/lib/armv7-m/libc.a(lib_a-malloc.o)
 .text          0x00000000        0x0 /opt/my1310ARM/toolchain/gcc-arm-none-eabi-4_9-2015q3/bin/../lib/gcc/arm-none-eabi/4.9.3/../../../../arm-none-eabi/lib/armv7-m/libc.a(lib_a-mallocr.o)
 .data          0x00000000        0x0 /opt/my1310ARM/toolchain/gcc-arm-none-eabi-4_9-2015q3/bin/../lib/gcc/arm-none-eabi/4.9.3/../../../../arm-none-eabi/lib/armv7-m/libc.a(lib_a-mallocr.o)
 .bss           0x00000000        0x0 /opt/my1310ARM/toolchain/gcc-arm-none-eabi-4_9-2015q3/bin/../lib/gcc/arm-none-eabi/4.9.3/../../../../arm-none-eabi/lib/armv7-m/libc.a(lib_a-mallocr.o)
 .text          0x00000000        0x0 /opt/my1310ARM/toolchain/gcc-arm-none-eabi-4_9-2015q3/bin/../lib/gcc/arm-none-eabi/4.9.3/../../../../arm-none-eabi/lib/armv7-m/libc.a(lib_a-memcmp.o)
 .data          0x00000000        0x0 /opt/my1310ARM/toolchain/gcc-arm-none-eabi-4_9-2015q3/bin/../lib/gcc/arm-none-eabi/4.9.3/../../../../arm-none-eabi/lib/armv7-m/libc.a(lib_a-memcmp.o)
 .bss           0x00000000        0x0 /opt/my1310ARM/toolchain/gcc-arm-none-eabi-4_9-2015q3/bin/../lib/gcc/arm-none-eabi/4.9.3/../../../../arm-none-eabi/lib/armv7-m/libc.a(lib_a-memcmp.o)
 .data          0x00000000        0x0 /opt/my1310ARM/toolchain/gcc-arm-none-eabi-4_9-2015q3/bin/../lib/gcc/arm-none-eabi/4.9.3/../../../../arm-none-eabi/lib/armv7-m/libc.a(lib_a-memcpy.o)
 .bss           0x00000000        0x0 /opt/my1310ARM/toolchain/gcc-arm-none-eabi-4_9-2015q3/bin/../lib/gcc/arm-none-eabi/4.9.3/../../../../arm-none-eabi/lib/armv7-m/libc.a(lib_a-memcpy.o)
 .text          0x00000000        0x0 /opt/my1310ARM/toolchain/gcc-arm-none-eabi-4_9-2015q3/bin/../lib/gcc/arm-none-eabi/4.9.3/../../../../arm-none-eabi/lib/armv7-m/libc.a(lib_a-memmove.o)
 .data          0x00000000        0x0 /opt/my1310ARM/toolchain/gcc-arm-none-eabi-4_9-2015q3/bin/../lib/gcc/arm-none-eabi/4.9.3/../../../../arm-none-eabi/lib/armv7-m/libc.a(lib_a-memmove.o)
 .bss           0x00000000        0x0 /opt/my1310ARM/toolchain/gcc-arm-none-eabi-4_9-2015q3/bin/../lib/gcc/arm-none-eabi/4.9.3/../../../../arm-none-eabi/lib/armv7-m/libc.a(lib_a-memmove.o)
 .text          0x00000000        0x0 /opt/my1310ARM/toolchain/gcc-arm-none-eabi-4_9-2015q3/bin/../lib/gcc/arm-none-eabi/4.9.3/../../../../arm-none-eabi/lib/armv7-m/libc.a(lib_a-memset.o)
 .data          0x00000000        0x0 /opt/my1310ARM/toolchain/gcc-arm-none-eabi-4_9-2015q3/bin/../lib/gcc/arm-none-eabi/4.9.3/../../../../arm-none-eabi/lib/armv7-m/libc.a(lib_a-memset.o)
 .bss           0x00000000        0x0 /opt/my1310ARM/toolchain/gcc-arm-none-eabi-4_9-2015q3/bin/../lib/gcc/arm-none-eabi/4.9.3/../../../../arm-none-eabi/lib/armv7-m/libc.a(lib_a-memset.o)
 .text          0x00000000        0x0 /opt/my1310ARM/toolchain/gcc-arm-none-eabi-4_9-2015q3/bin/../lib/gcc/arm-none-eabi/4.9.3/../../../../arm-none-eabi/lib/armv7-m/libc.a(lib_a-mlock.o)
 .data          0x00000000        0x0 /opt/my1310ARM/toolchain/gcc-arm-none-eabi-4_9-2015q3/bin/../lib/gcc/arm-none-eabi/4.9.3/../../../../arm-none-eabi/lib/armv7-m/libc.a(lib_a-mlock.o)
 .bss           0x00000000        0x0 /opt/my1310ARM/toolchain/gcc-arm-none-eabi-4_9-2015q3/bin/../lib/gcc/arm-none-eabi/4.9.3/../../../../arm-none-eabi/lib/armv7-m/libc.a(lib_a-mlock.o)
 .text          0x00000000        0x0 /opt/my1310ARM/toolchain/gcc-arm-none-eabi-4_9-2015q3/bin/../lib/gcc/arm-none-eabi/4.9.3/../../../../arm-none-eabi/lib/armv7-m/libc.a(lib_a-sbrkr.o)
 .data          0x00000000        0x0 /opt/my1310ARM/toolchain/gcc-arm-none-eabi-4_9-2015q3/bin/../lib/gcc/arm-none-eabi/4.9.3/../../../../arm-none-eabi/lib/armv7-m/libc.a(lib_a-sbrkr.o)
 .bss           0x00000000        0x0 /opt/my1310ARM/toolchain/gcc-arm-none-eabi-4_9-2015q3/bin/../lib/gcc/arm-none-eabi/4.9.3/../../../../arm-none-eabi/lib/armv7-m/libc.a(lib_a-sbrkr.o)
 .text          0x00000000        0x0 /opt/my1310ARM/toolchain/gcc-arm-none-eabi-4_9-2015q3/bin/../lib/gcc/arm-none-eabi/4.9.3/../../../../arm-none-eabi/lib/armv7-m/libc.a(lib_a-strlen.o)
 .data          0x00000000        0x0 /opt/my1310ARM/toolchain/gcc-arm-none-eabi-4_9-2015q3/bin/../lib/gcc/arm-none-eabi/4.9.3/../../../../arm-none-eabi/lib/armv7-m/libc.a(lib_a-strlen.o)
 .bss           0x00000000        0x0 /opt/my1310ARM/toolchain/gcc-arm-none-eabi-4_9-2015q3/bin/../lib/gcc/arm-none-eabi/4.9.3/../../../../arm-none-eabi/lib/armv7-m/libc.a(lib_a-strlen.o)
 .text          0x00000000        0x0 /opt/my1310ARM/toolchain/gcc-arm-none-eabi-4_9-2015q3/bin/../lib/gcc/arm-none-eabi/4.9.3/../../../../arm-none-eabi/lib/armv7-m/libc.a(lib_a-freer.o)
 .data          0x00000000        0x0 /opt/my1310ARM/toolchain/gcc-arm-none-eabi-4_9-2015q3/bin/../lib/gcc/arm-none-eabi/4.9.3/../../../../arm-none-eabi/lib/armv7-m/libc.a(lib_a-freer.o)
 .bss           0x00000000        0x0 /opt/my1310ARM/toolchain/gcc-arm-none-eabi-4_9-2015q3/bin/../lib/gcc/arm-none-eabi/4.9.3/../../../../arm-none-eabi/lib/armv7-m/libc.a(lib_a-freer.o)
 .text          0x00000000        0x0 /opt/my1310ARM/toolchain/gcc-arm-none-eabi-4_9-2015q3/bin/../lib/gcc/arm-none-eabi/4.9.3/../../../../arm-none-eabi/lib/armv7-m/libc.a(lib_a-impure.o)
 .data          0x00000000        0x0 /opt/my1310ARM/toolchain/gcc-arm-none-eabi-4_9-2015q3/bin/../lib/gcc/arm-none-eabi/4.9.3/../../../../arm-none-eabi/lib/armv7-m/libc.a(lib_a-impure.o)
 .bss           0x00000000        0x0 /opt/my1310ARM/toolchain/gcc-arm-none-eabi-4_9-2015q3/bin/../lib/gcc/arm-none-eabi/4.9.3/../../../../arm-none-eabi/lib/armv7-m/libc.a(lib_a-impure.o)
 .rodata._global_impure_ptr
                0x00000000        0x4 /opt/my1310ARM/toolchain/gcc-arm-none-eabi-4_9-2015q3/bin/../lib/gcc/arm-none-eabi/4.9.3/../../../../arm-none-eabi/lib/armv7-m/libc.a(lib_a-impure.o)
 .text          0x00000000        0x0 /opt/my1310ARM/toolchain/gcc-arm-none-eabi-4_9-2015q3/bin/../lib/gcc/arm-none-eabi/4.9.3/../../../../arm-none-eabi/lib/armv7-m/libc.a(lib_a-reent.o)
 .data          0x00000000        0x0 /opt/my1310ARM/toolchain/gcc-arm-none-eabi-4_9-2015q3/bin/../lib/gcc/arm-none-eabi/4.9.3/../../../../arm-none-eabi/lib/armv7-m/libc.a(lib_a-reent.o)
 .bss           0x00000000        0x0 /opt/my1310ARM/toolchain/gcc-arm-none-eabi-4_9-2015q3/bin/../lib/gcc/arm-none-eabi/4.9.3/../../../../arm-none-eabi/lib/armv7-m/libc.a(lib_a-reent.o)
 .text.cleanup_glue
                0x00000000       0x1c /opt/my1310ARM/toolchain/gcc-arm-none-eabi-4_9-2015q3/bin/../lib/gcc/arm-none-eabi/4.9.3/../../../../arm-none-eabi/lib/armv7-m/libc.a(lib_a-reent.o)
 .text._reclaim_reent
                0x00000000       0x88 /opt/my1310ARM/toolchain/gcc-arm-none-eabi-4_9-2015q3/bin/../lib/gcc/arm-none-eabi/4.9.3/../../../../arm-none-eabi/lib/armv7-m/libc.a(lib_a-reent.o)
 .text          0x00000000        0x0 /opt/my1310ARM/toolchain/gcc-arm-none-eabi-4_9-2015q3/bin/../lib/gcc/arm-none-eabi/4.9.3/../../../../arm-none-eabi/lib/armv7-m/libnosys.a(sbrk.o)
 .data          0x00000000        0x0 /opt/my1310ARM/toolchain/gcc-arm-none-eabi-4_9-2015q3/bin/../lib/gcc/arm-none-eabi/4.9.3/../../../../arm-none-eabi/lib/armv7-m/libnosys.a(sbrk.o)
 .bss           0x00000000        0x0 /opt/my1310ARM/toolchain/gcc-arm-none-eabi-4_9-2015q3/bin/../lib/gcc/arm-none-eabi/4.9.3/../../../../arm-none-eabi/lib/armv7-m/libnosys.a(sbrk.o)

Memory Configuration

Name             Origin             Length             Attributes
FLASH            0x00000000         0x0001e000         xr
FLASH_DATA       0x0001e000         0x00001000         xr
FLASH_CCFG       0x0001ffa8         0x00000058         xr
SRAM             0x20000000         0x00005000         xrw
GPRAM            0x11000000         0x00002000         xrw
*default*        0x00000000         0xffffffff

Linker script and memory map

LOAD obj_cc13xx/fault-handlers.o
LOAD obj_cc13xx/ccfg.o
LOAD obj_cc13xx/startup_gcc.o
LOAD nodes-sender.co
LOAD contiki-cc13xx.a
LOAD /opt/my1310ARM/toolchain/gcc-arm-none-eabi-4_9-2015q3/bin/../lib/gcc/arm-none-eabi/4.9.3/../../../../arm-none-eabi/lib/armv7-m/libm.a
START GROUP
LOAD /opt/my1310ARM/toolchain/gcc-arm-none-eabi-4_9-2015q3/bin/../lib/gcc/arm-none-eabi/4.9.3/armv7-m/libgcc.a
LOAD /opt/my1310ARM/toolchain/gcc-arm-none-eabi-4_9-2015q3/bin/../lib/gcc/arm-none-eabi/4.9.3/../../../../arm-none-eabi/lib/armv7-m/libc.a
END GROUP
START GROUP
LOAD /opt/my1310ARM/toolchain/gcc-arm-none-eabi-4_9-2015q3/bin/../lib/gcc/arm-none-eabi/4.9.3/armv7-m/libgcc.a
LOAD /opt/my1310ARM/toolchain/gcc-arm-none-eabi-4_9-2015q3/bin/../lib/gcc/arm-none-eabi/4.9.3/../../../../arm-none-eabi/lib/armv7-m/libc.a
LOAD /opt/my1310ARM/toolchain/gcc-arm-none-eabi-4_9-2015q3/bin/../lib/gcc/arm-none-eabi/4.9.3/../../../../arm-none-eabi/lib/armv7-m/libnosys.a
END GROUP
                0x20005000                _estack = (ORIGIN (SRAM) + 0x5000)
                0x00000000                _Min_Heap_Size = 0x0
                0x00000100                _Min_Stack_Size = 0x100

.text           0x00000000     0xfb38
                0x00000000                _text = .
 *(SORT(.vectors))
 .vectors       0x00000000       0xc8 obj_cc13xx/startup_gcc.o
                0x00000000                g_pfnVectors
 *(SORT(.text*))
 .text.FaultISR
                0x000000c8       0x18 obj_cc13xx/fault-handlers.o
                0x000000c8                FaultISR
 .text.NmiSRHandler
                0x000000e0        0x4 obj_cc13xx/startup_gcc.o
                0x000000e0                NmiSR
 .text.IntDefaultHandler
                0x000000e4        0x4 obj_cc13xx/startup_gcc.o
                0x000000e4                SSI0IntHandler
                0x000000e4                SWEvent0IntHandler
                0x000000e4                uDMAIntHandler
                0x000000e4                WatchdogIntHandler
                0x000000e4                RFCHardwareIntHandler
                0x000000e4                Timer1BIntHandler
                0x000000e4                I2SIntHandler
                0x000000e4                Timer2BIntHandler
                0x000000e4                Timer2AIntHandler
                0x000000e4                Timer1AIntHandler
                0x000000e4                GPIOIntHandler
                0x000000e4                AONIntHandler
                0x000000e4                AUXSWEvent0IntHandler
                0x000000e4                AUXADCIntHandler
                0x000000e4                PendSVIntHandler
                0x000000e4                AUXSWEvent1IntHandler
                0x000000e4                SVCallIntHandler
                0x000000e4                MPUFaultIntHandler
                0x000000e4                SysTickIntHandler
                0x000000e4                BusFaultIntHandler
                0x000000e4                AONProgIntHandler
                0x000000e4                AUXCompAIntHandler
                0x000000e4                SSI1IntHandler
                0x000000e4                FlashIntHandler
                0x000000e4                uDMAErrIntHandler
                0x000000e4                UsageFaultIntHandler
                0x000000e4                RFCCmdAckIntHandler
                0x000000e4                CryptoIntHandler
                0x000000e4                Timer0AIntHandler
                0x000000e4                I2CIntHandler
                0x000000e4                DebugMonIntHandler
                0x000000e4                Timer0BIntHandler
                0x000000e4                AUXCombEventIntHandler
                0x000000e4                Timer3AIntHandler
                0x000000e4                DynProgIntHandler
                0x000000e4                Timer3BIntHandler
 .text.ResetISR
                0x000000e8       0x5c obj_cc13xx/startup_gcc.o
                0x000000e8                ResetISR
 .text.auto_feedback
                0x00000144       0x44 nodes-sender.co
 .text.random_delay
                0x00000188       0x38 nodes-sender.co
 .text.msg_handler
                0x000001c0      0x108 nodes-sender.co
 .text.process_thread_udp_client_process
                0x000002c8      0x300 nodes-sender.co
 .text.system_monitor_msg_send
                0x000005c8       0x44 nodes-sender.co
                0x000005c8                system_monitor_msg_send
 .text.send_read_meter_cmd
                0x0000060c       0x60 nodes-sender.co
 .text.sendCmd  0x0000066c       0x54 nodes-sender.co
 .text.process_thread_task_schedule_process
                0x000006c0       0xa8 contiki-cc13xx.a(task-schedule.o)
 .text.get_Start_Time.part.0
                0x00000768      0x2b0 contiki-cc13xx.a(task-schedule.o)
 .text.task_schedule_reset
                0x00000a18       0x8c contiki-cc13xx.a(task-schedule.o)
 .text.task_schedule_init
                0x00000aa4       0x28 contiki-cc13xx.a(task-schedule.o)
                0x00000aa4                task_schedule_init
 .text.task_schedule_set
                0x00000acc       0x88 contiki-cc13xx.a(task-schedule.o)
                0x00000acc                task_schedule_set
 .text.task_schedule_change
                0x00000b54      0x104 contiki-cc13xx.a(task-schedule.o)
                0x00000b54                task_schedule_change
 .text.task_schedule_set_period
                0x00000c58       0x24 contiki-cc13xx.a(task-schedule.o)
                0x00000c58                task_schedule_set_period
 .text.get_system_monitor_msg
                0x00000c7c      0x4ac contiki-cc13xx.a(node_function.o)
                0x00000c7c                get_system_monitor_msg
 .text.setting_network_configuration1
                0x00001128       0x2c contiki-cc13xx.a(node_function.o)
                0x00001128                setting_network_configuration1
 .text.setting_network_configuration2
                0x00001154       0x1c contiki-cc13xx.a(node_function.o)
                0x00001154                setting_network_configuration2
 .text.NodeReboot
                0x00001170        0x4 contiki-cc13xx.a(node_function.o)
                0x00001170                NodeReboot
 .text.NodeReset
                0x00001174       0x14 contiki-cc13xx.a(node_function.o)
                0x00001174                NodeReset
 .text.startup.main
                0x00001188      0x230 contiki-cc13xx.a(contiki-main.o)
                0x00001188                main
 .text.wakeup_handler
                0x000013b8       0x20 contiki-cc13xx.a(board.o)
 .text.leds_arch_init
                0x000013d8       0x28 contiki-cc13xx.a(board.o)
                0x000013d8                leds_arch_init
 .text.leds_arch_set
                0x00001400       0x1c contiki-cc13xx.a(board.o)
                0x00001400                leds_arch_set
 .text.board_init
                0x0000141c       0xa4 contiki-cc13xx.a(board.o)
                0x0000141c                board_init
 .text.node_id_burn
                0x000014c0        0xc contiki-cc13xx.a(node-id.o)
                0x000014c0                node_id_burn
 .text.normalbyte_rfchannel_burn
                0x000014cc       0x40 contiki-cc13xx.a(node-id.o)
                0x000014cc                normalbyte_rfchannel_burn
 .text.normalbyte_rfchannel_restore
                0x0000150c       0x4c contiki-cc13xx.a(node-id.o)
                0x0000150c                normalbyte_rfchannel_restore
 .text.restore_meter_cmd
                0x00001558       0x14 contiki-cc13xx.a(node-id.o)
                0x00001558                restore_meter_cmd
 .text.print_cmd_array
                0x0000156c       0x24 contiki-cc13xx.a(node-id.o)
                0x0000156c                print_cmd_array
 .text.cmd_bytes_burn
                0x00001590       0x5c contiki-cc13xx.a(node-id.o)
                0x00001590                cmd_bytes_burn
 .text.restart_count_byte_burn
                0x000015ec       0x30 contiki-cc13xx.a(node-id.o)
                0x000015ec                restart_count_byte_burn
 .text.restart_count_byte_restore
                0x0000161c       0x30 contiki-cc13xx.a(node-id.o)
                0x0000161c                restart_count_byte_restore
 .text.get_voltage
                0x0000164c       0x40 contiki-cc13xx.a(bat-voltage.o)
                0x0000164c                get_voltage
 .text.get_object
                0x0000168c        0x4 contiki-cc13xx.a(prop-mode.o)
 .text.set_object
                0x00001690        0x4 contiki-cc13xx.a(prop-mode.o)
 .text.request  0x00001694       0x20 contiki-cc13xx.a(prop-mode.o)
 .text.soft_off_prop
                0x000016b4       0x3c contiki-cc13xx.a(prop-mode.o)
 .text.prepare  0x000016f0       0x1c contiki-cc13xx.a(prop-mode.o)
 .text.pending_packet
                0x0000170c       0x34 contiki-cc13xx.a(prop-mode.o)
 .text.read_frame
                0x00001740       0x50 contiki-cc13xx.a(prop-mode.o)
 .text.rx_on_prop
                0x00001790       0x84 contiki-cc13xx.a(prop-mode.o)
 .text.rx_off_prop
                0x00001814       0x80 contiki-cc13xx.a(prop-mode.o)
 .text.prop_div_radio_setup
                0x00001894       0x50 contiki-cc13xx.a(prop-mode.o)
 .text.prop_fs  0x000018e4       0x34 contiki-cc13xx.a(prop-mode.o)
 .text.on       0x00001918      0x1fc contiki-cc13xx.a(prop-mode.o)
 .text.soft_on_prop
                0x00001b14       0x20 contiki-cc13xx.a(prop-mode.o)
 .text.off      0x00001b34       0x58 contiki-cc13xx.a(prop-mode.o)
 .text.set_value
                0x00001b8c      0x19c contiki-cc13xx.a(prop-mode.o)
 .text.get_value
                0x00001d28      0x16c contiki-cc13xx.a(prop-mode.o)
 .text.transmit
                0x00001e94      0x144 contiki-cc13xx.a(prop-mode.o)
 .text.send     0x00001fd8       0x24 contiki-cc13xx.a(prop-mode.o)
 .text.channel_clear
                0x00001ffc       0x7c contiki-cc13xx.a(prop-mode.o)
 .text.receiving_packet
                0x00002078       0x28 contiki-cc13xx.a(prop-mode.o)
 .text.init     0x000020a0       0xa8 contiki-cc13xx.a(prop-mode.o)
 .text.get_cca_thr
                0x00002148        0xc contiki-cc13xx.a(prop-mode.o)
                0x00002148                get_cca_thr
 .text.power_domain_on
                0x00002154       0x20 contiki-cc13xx.a(clock.o)
 .text.update_clock_variable
                0x00002174       0x3c contiki-cc13xx.a(clock.o)
 .text.clock_init
                0x000021b0       0x98 contiki-cc13xx.a(clock.o)
                0x000021b0                clock_init
 .text.clock_time
                0x00002248       0x14 contiki-cc13xx.a(clock.o)
                0x00002248                clock_time
 .text.clock_update
                0x0000225c       0x28 contiki-cc13xx.a(clock.o)
                0x0000225c                clock_update
 .text.clock_seconds
                0x00002284       0x18 contiki-cc13xx.a(clock.o)
                0x00002284                clock_seconds
 .text.rtimer_arch_init
                0x0000229c        0x4 contiki-cc13xx.a(rtimer-arch.o)
                0x0000229c                rtimer_arch_init
 .text.rtimer_arch_schedule
                0x000022a0        0x8 contiki-cc13xx.a(rtimer-arch.o)
                0x000022a0                rtimer_arch_schedule
 .text.rtimer_arch_now
                0x000022a8        0x4 contiki-cc13xx.a(rtimer-arch.o)
                0x000022a8                rtimer_arch_now
 .text.soc_rtc_init
                0x000022ac       0xb8 contiki-cc13xx.a(soc-rtc.o)
                0x000022ac                soc_rtc_init
 .text.soc_rtc_schedule_one_shot
                0x00002364       0x4c contiki-cc13xx.a(soc-rtc.o)
                0x00002364                soc_rtc_schedule_one_shot
 .text.soc_rtc_last_isr_time
                0x000023b0        0xc contiki-cc13xx.a(soc-rtc.o)
                0x000023b0                soc_rtc_last_isr_time
 .text.AONRTCIntHandler
                0x000023bc      0x2ac contiki-cc13xx.a(soc-rtc.o)
                0x000023bc                AONRTCIntHandler
 .text.lock_config
                0x00002668       0x18 contiki-cc13xx.a(contiki-watchdo)
 .text.unlock_config
                0x00002680       0x2c contiki-cc13xx.a(contiki-watchdo)
 .text.watchdog_init
                0x000026ac       0x1c contiki-cc13xx.a(contiki-watchdo)
                0x000026ac                watchdog_init
 .text.watchdog_start
                0x000026c8       0x30 contiki-cc13xx.a(contiki-watchdo)
                0x000026c8                watchdog_start
 .text.watchdog_periodic
                0x000026f8       0x1c contiki-cc13xx.a(contiki-watchdo)
                0x000026f8                watchdog_periodic
 .text.watchdog_reboot
                0x00002714        0x8 contiki-cc13xx.a(contiki-watchdo)
                0x00002714                watchdog_reboot
 .text.putchar  0x0000271c       0x10 contiki-cc13xx.a(putchar.o)
                0x0000271c                putchar
 .text.puts     0x0000272c       0x30 contiki-cc13xx.a(putchar.o)
                0x0000272c                puts
 .text.dbg_send_bytes
                0x0000275c       0x40 contiki-cc13xx.a(putchar.o)
                0x0000275c                dbg_send_bytes
 .text.ieee_addr_cpy_to
                0x0000279c       0x40 contiki-cc13xx.a(ieee-addr.o)
                0x0000279c                ieee_addr_cpy_to
 .text.power_and_clock
                0x000027dc       0x40 contiki-cc13xx.a(cc26xx-uart.o)
 .text.enable   0x0000281c       0xf4 contiki-cc13xx.a(cc26xx-uart.o)
 .text.accessible
                0x00002910       0x24 contiki-cc13xx.a(cc26xx-uart.o)
 .text.lpm_drop_handler
                0x00002934       0xe4 contiki-cc13xx.a(cc26xx-uart.o)
 .text.cc26xx_uart_init
                0x00002a18       0x28 contiki-cc13xx.a(cc26xx-uart.o)
                0x00002a18                cc26xx_uart_init
 .text.cc26xx_uart_write_byte
                0x00002a40       0x28 contiki-cc13xx.a(cc26xx-uart.o)
                0x00002a40                cc26xx_uart_write_byte
 .text.cc26xx_uart_set_input
                0x00002a68       0x64 contiki-cc13xx.a(cc26xx-uart.o)
                0x00002a68                cc26xx_uart_set_input
 .text.cc26xx_uart_busy
                0x00002acc       0x18 contiki-cc13xx.a(cc26xx-uart.o)
                0x00002acc                cc26xx_uart_busy
 .text.UART0IntHandler
                0x00002ae4       0x90 contiki-cc13xx.a(cc26xx-uart.o)
                0x00002ae4                UART0IntHandler
 .text.lpm_sleep
                0x00002b74       0x9c contiki-cc13xx.a(lpm.o)
                0x00002b74                lpm_sleep
 .text.lpm_drop
                0x00002c10      0x2e4 contiki-cc13xx.a(lpm.o)
                0x00002c10                lpm_drop
 .text.lpm_register_module
                0x00002ef4        0xc contiki-cc13xx.a(lpm.o)
                0x00002ef4                lpm_register_module
 .text.lpm_unregister_module
                0x00002f00        0xc contiki-cc13xx.a(lpm.o)
                0x00002f00                lpm_unregister_module
 .text.lpm_init
                0x00002f0c        0xc contiki-cc13xx.a(lpm.o)
                0x00002f0c                lpm_init
 .text.lpm_pin_set_default_state
                0x00002f18       0x2c contiki-cc13xx.a(lpm.o)
                0x00002f18                lpm_pin_set_default_state
 .text.oscillators_select_lf_xosc
                0x00002f44       0x58 contiki-cc13xx.a(oscillators.o)
                0x00002f44                oscillators_select_lf_xosc
 .text.oscillators_request_hf_xosc
                0x00002f9c       0x30 contiki-cc13xx.a(oscillators.o)
                0x00002f9c                oscillators_request_hf_xosc
 .text.oscillators_switch_to_hf_xosc
                0x00002fcc       0x34 contiki-cc13xx.a(oscillators.o)
                0x00002fcc                oscillators_switch_to_hf_xosc
 .text.oscillators_switch_to_hf_rc
                0x00003000       0x38 contiki-cc13xx.a(oscillators.o)
                0x00003000                oscillators_switch_to_hf_rc
 .text.update_soft_time
                0x00003038       0x8c contiki-cc13xx.a(netconfig.o)
                0x00003038                update_soft_time
 .text.set_init_flag
                0x000030c4        0xc contiki-cc13xx.a(netconfig.o)
                0x000030c4                set_init_flag
 .text.get_init_flag
                0x000030d0        0xc contiki-cc13xx.a(netconfig.o)
                0x000030d0                get_init_flag
 .text.set_active_flag
                0x000030dc       0x74 contiki-cc13xx.a(netconfig.o)
                0x000030dc                set_active_flag
 .text.syn_update_timenow
                0x00003150       0x1c contiki-cc13xx.a(netconfig.o)
                0x00003150                syn_update_timenow
 .text.get_timenow
                0x0000316c       0x14 contiki-cc13xx.a(netconfig.o)
                0x0000316c                get_timenow
 .text.get_idle_time
                0x00003180       0xb0 contiki-cc13xx.a(netconfig.o)
                0x00003180                get_idle_time
 .text.get_active_bit_length
                0x00003230       0x8c contiki-cc13xx.a(netconfig.o)
                0x00003230                get_active_bit_length
 .text.get_active_flag
                0x000032bc        0xc contiki-cc13xx.a(netconfig.o)
                0x000032bc                get_active_flag
 .text.get_nowdays
                0x000032c8        0xc contiki-cc13xx.a(netconfig.o)
                0x000032c8                get_nowdays
 .text.set_autocal_info
                0x000032d4       0x20 contiki-cc13xx.a(netconfig.o)
                0x000032d4                set_autocal_info
 .text.get_cal_count
                0x000032f4        0xc contiki-cc13xx.a(netconfig.o)
                0x000032f4                get_cal_count
 .text.set_cal_countaddone
                0x00003300       0x10 contiki-cc13xx.a(netconfig.o)
                0x00003300                set_cal_countaddone
 .text.get_cal_offest
                0x00003310        0xc contiki-cc13xx.a(netconfig.o)
                0x00003310                get_cal_offest
 .text.get_cal_interval
                0x0000331c        0xc contiki-cc13xx.a(netconfig.o)
                0x0000331c                get_cal_interval
 .text.set_cal_countzero
                0x00003328        0xc contiki-cc13xx.a(netconfig.o)
                0x00003328                set_cal_countzero
 .text.process_thread_rf_core_process
                0x00003334       0x58 contiki-cc13xx.a(rf-core.o)
 .text.rf_core_is_accessible
                0x0000338c       0x10 contiki-cc13xx.a(rf-core.o)
                0x0000338c                rf_core_is_accessible
 .text.rf_core_send_cmd
                0x0000339c       0xa4 contiki-cc13xx.a(rf-core.o)
                0x0000339c                rf_core_send_cmd
 .text.rf_core_wait_cmd_done
                0x00003440       0x30 contiki-cc13xx.a(rf-core.o)
                0x00003440                rf_core_wait_cmd_done
 .text.rf_core_power_up
                0x00003470       0xcc contiki-cc13xx.a(rf-core.o)
                0x00003470                rf_core_power_up
 .text.rf_core_start_rat
                0x0000353c       0x68 contiki-cc13xx.a(rf-core.o)
                0x0000353c                rf_core_start_rat
 .text.rf_core_stop_rat
                0x000035a4       0x7c contiki-cc13xx.a(rf-core.o)
                0x000035a4                rf_core_stop_rat
 .text.rf_core_power_down
                0x00003620       0xec contiki-cc13xx.a(rf-core.o)
                0x00003620                rf_core_power_down
 .text.rf_core_set_modesel
                0x0000370c       0x44 contiki-cc13xx.a(rf-core.o)
                0x0000370c                rf_core_set_modesel
 .text.rf_core_setup_interrupts
                0x00003750       0x74 contiki-cc13xx.a(rf-core.o)
                0x00003750                rf_core_setup_interrupts
 .text.rf_core_cmd_done_en
                0x000037c4       0x28 contiki-cc13xx.a(rf-core.o)
                0x000037c4                rf_core_cmd_done_en
 .text.rf_core_cmd_done_dis
                0x000037ec       0x18 contiki-cc13xx.a(rf-core.o)
                0x000037ec                rf_core_cmd_done_dis
 .text.rf_core_get_last_radio_op
                0x00003804        0xc contiki-cc13xx.a(rf-core.o)
                0x00003804                rf_core_get_last_radio_op
 .text.rf_core_primary_mode_register
                0x00003810        0xc contiki-cc13xx.a(rf-core.o)
                0x00003810                rf_core_primary_mode_register
 .text.RFCCPE1IntHandler
                0x0000381c       0x64 contiki-cc13xx.a(rf-core.o)
                0x0000381c                RFCCPE1IntHandler
 .text.RFCCPE0IntHandler
                0x00003880       0x98 contiki-cc13xx.a(rf-core.o)
                0x00003880                RFCCPE0IntHandler
 .text.rf_ble_is_active
                0x00003918        0xc contiki-cc13xx.a(rf-ble.o)
                0x00003918                rf_ble_is_active
 .text.random_rand
                0x00003924        0xc contiki-cc13xx.a(random.o)
                0x00003924                random_rand
 .text.random_init
                0x00003930        0x4 contiki-cc13xx.a(random.o)
                0x00003930                random_init
 .text.power_up
                0x00003934       0x40 contiki-cc13xx.a(soc-trng.o)
 .text.request  0x00003974       0x14 contiki-cc13xx.a(soc-trng.o)
 .text.process_thread_soc_trng_process
                0x00003988       0x94 contiki-cc13xx.a(soc-trng.o)
 .text.accessible
                0x00003a1c       0x24 contiki-cc13xx.a(soc-trng.o)
 .text.soc_trng_rand_synchronous
                0x00003a40       0xc4 contiki-cc13xx.a(soc-trng.o)
                0x00003a40                soc_trng_rand_synchronous
 .text.TRNGIntHandler
                0x00003b04       0x90 contiki-cc13xx.a(soc-trng.o)
                0x00003b04                TRNGIntHandler
 .text.soc_trng_init
                0x00003b94       0x28 contiki-cc13xx.a(soc-trng.o)
                0x00003b94                soc_trng_init
 .text.write_str
                0x00003bbc       0x14 contiki-cc13xx.a(dbg-printf.o)
 .text.printf   0x00003bd0       0x24 contiki-cc13xx.a(dbg-printf.o)
                0x00003bd0                printf
 .text.fill_space
                0x00003bf4       0x3c contiki-cc13xx.a(strformat.o)
 .text.format_str_v
                0x00003c30      0x95c contiki-cc13xx.a(strformat.o)
                0x00003c30                format_str_v
 .text.autostart_start
                0x0000458c       0x18 contiki-cc13xx.a(autostart.o)
                0x0000458c                autostart_start
 .text.process_thread_ctimer_process
                0x000045a4       0x94 contiki-cc13xx.a(ctimer.o)
 .text.ctimer_init
                0x00004638       0x28 contiki-cc13xx.a(ctimer.o)
                0x00004638                ctimer_init
 .text.ctimer_set_with_process
                0x00004660       0x4c contiki-cc13xx.a(ctimer.o)
                0x00004660                ctimer_set_with_process
 .text.ctimer_set
                0x000046ac       0x18 contiki-cc13xx.a(ctimer.o)
                0x000046ac                ctimer_set
 .text.ctimer_reset
                0x000046c4       0x38 contiki-cc13xx.a(ctimer.o)
                0x000046c4                ctimer_reset
 .text.ctimer_stop
                0x000046fc       0x34 contiki-cc13xx.a(ctimer.o)
                0x000046fc                ctimer_stop
 .text.energest_init
                0x00004730       0x34 contiki-cc13xx.a(energest.o)
                0x00004730                energest_init
 .text.energest_type_time
                0x00004764       0x48 contiki-cc13xx.a(energest.o)
                0x00004764                energest_type_time
 .text.energest_type_set
                0x000047ac       0x10 contiki-cc13xx.a(energest.o)
                0x000047ac                energest_type_set
 .text.energest_flush
                0x000047bc       0x54 contiki-cc13xx.a(energest.o)
                0x000047bc                energest_flush
 .text.getUniCarriages
                0x00004810       0x28 contiki-cc13xx.a(energest.o)
                0x00004810                getUniCarriages
 .text.update_time
                0x00004838       0x44 contiki-cc13xx.a(etimer.o)
 .text.process_thread_etimer_process
                0x0000487c       0xc8 contiki-cc13xx.a(etimer.o)
 .text.add_timer
                0x00004944       0x54 contiki-cc13xx.a(etimer.o)
 .text.etimer_request_poll
                0x00004998        0xc contiki-cc13xx.a(etimer.o)
                0x00004998                etimer_request_poll
 .text.etimer_set
                0x000049a4       0x14 contiki-cc13xx.a(etimer.o)
                0x000049a4                etimer_set
 .text.etimer_reset
                0x000049b8       0x14 contiki-cc13xx.a(etimer.o)
                0x000049b8                etimer_reset
 .text.etimer_expired
                0x000049cc        0xc contiki-cc13xx.a(etimer.o)
                0x000049cc                etimer_expired
 .text.etimer_pending
                0x000049d8       0x10 contiki-cc13xx.a(etimer.o)
                0x000049d8                etimer_pending
 .text.etimer_next_expiration_time
                0x000049e8       0x14 contiki-cc13xx.a(etimer.o)
                0x000049e8                etimer_next_expiration_time
 .text.etimer_stop
                0x000049fc       0x4c contiki-cc13xx.a(etimer.o)
                0x000049fc                etimer_stop
 .text.exit_process
                0x00004a48       0xb0 contiki-cc13xx.a(process.o)
 .text.call_process.part.0
                0x00004af8       0x38 contiki-cc13xx.a(process.o)
 .text.do_poll  0x00004b30       0x3c contiki-cc13xx.a(process.o)
 .text.process_alloc_event
                0x00004b6c       0x10 contiki-cc13xx.a(process.o)
                0x00004b6c                process_alloc_event
 .text.process_init
                0x00004b7c       0x34 contiki-cc13xx.a(process.o)
                0x00004b7c                process_init
 .text.process_run
                0x00004bb0       0xd8 contiki-cc13xx.a(process.o)
                0x00004bb0                process_run
 .text.process_nevents
                0x00004c88       0x14 contiki-cc13xx.a(process.o)
                0x00004c88                process_nevents
 .text.process_post
                0x00004c9c       0x50 contiki-cc13xx.a(process.o)
                0x00004c9c                process_post
 .text.process_post_synch
                0x00004cec       0x18 contiki-cc13xx.a(process.o)
                0x00004cec                process_post_synch
 .text.process_start
                0x00004d04       0x40 contiki-cc13xx.a(process.o)
                0x00004d04                process_start
 .text.process_poll
                0x00004d44       0x18 contiki-cc13xx.a(process.o)
                0x00004d44                process_poll
 .text.rtimer_init
                0x00004d5c        0x4 contiki-cc13xx.a(rtimer.o)
                0x00004d5c                rtimer_init
 .text.rtimer_set
                0x00004d60       0x78 contiki-cc13xx.a(rtimer.o)
                0x00004d60                rtimer_set
 .text.rtimer_run_next
                0x00004dd8       0x28 contiki-cc13xx.a(rtimer.o)
                0x00004dd8                rtimer_run_next
 .text.timer_set
                0x00004e00       0x10 contiki-cc13xx.a(timer.o)
                0x00004e00                timer_set
 .text.timer_reset
                0x00004e10        0xc contiki-cc13xx.a(timer.o)
                0x00004e10                timer_reset
 .text.timer_expired
                0x00004e1c       0x1c contiki-cc13xx.a(timer.o)
                0x00004e1c                timer_expired
 .text.process_thread_serial_line_process2
                0x00004e38      0x11c contiki-cc13xx.a(serial-line.o)
 .text.serial_line_input_byte2
                0x00004f54       0x44 contiki-cc13xx.a(serial-line.o)
                0x00004f54                serial_line_input_byte2
 .text.serial_line_init2
                0x00004f98       0x24 contiki-cc13xx.a(serial-line.o)
                0x00004f98                serial_line_init2
 .text.show_leds
                0x00004fbc       0xf0 contiki-cc13xx.a(leds.o)
 .text.leds_init
                0x000050ac       0x14 contiki-cc13xx.a(leds.o)
                0x000050ac                leds_init
 .text.leds_off
                0x000050c0       0x10 contiki-cc13xx.a(leds.o)
                0x000050c0                leds_off
 .text.list_init
                0x000050d0        0x8 contiki-cc13xx.a(list.o)
                0x000050d0                list_init
 .text.list_head
                0x000050d8        0x4 contiki-cc13xx.a(list.o)
                0x000050d8                list_head
 .text.list_add
                0x000050dc       0x48 contiki-cc13xx.a(list.o)
                0x000050dc                list_add
 .text.list_push
                0x00005124       0x40 contiki-cc13xx.a(list.o)
                0x00005124                list_push
 .text.list_remove
                0x00005164       0x2c contiki-cc13xx.a(list.o)
                0x00005164                list_remove
 .text.list_length
                0x00005190       0x14 contiki-cc13xx.a(list.o)
                0x00005190                list_length
 .text.list_item_next
                0x000051a4        0x8 contiki-cc13xx.a(list.o)
                0x000051a4                list_item_next
 .text.ringbuf_init
                0x000051ac       0x10 contiki-cc13xx.a(ringbuf.o)
                0x000051ac                ringbuf_init
 .text.ringbuf_put
                0x000051bc       0x30 contiki-cc13xx.a(ringbuf.o)
                0x000051bc                ringbuf_put
 .text.ringbuf_get
                0x000051ec       0x28 contiki-cc13xx.a(ringbuf.o)
                0x000051ec                ringbuf_get
 .text.ringbuf_elements
                0x00005214        0xc contiki-cc13xx.a(ringbuf.o)
                0x00005214                ringbuf_elements
 .text.uip_ds6_list_loop
                0x00005220       0x60 contiki-cc13xx.a(uip-ds6.o)
                0x00005220                uip_ds6_list_loop
 .text.uip_ds6_prefix_add
                0x00005280       0x6c contiki-cc13xx.a(uip-ds6.o)
                0x00005280                uip_ds6_prefix_add
 .text.uip_ds6_is_addr_onlink
                0x000052ec       0x3c contiki-cc13xx.a(uip-ds6.o)
                0x000052ec                uip_ds6_is_addr_onlink
 .text.uip_ds6_addr_lookup
                0x00005328       0x30 contiki-cc13xx.a(uip-ds6.o)
                0x00005328                uip_ds6_addr_lookup
 .text.uip_ds6_get_link_local
                0x00005358       0x44 contiki-cc13xx.a(uip-ds6.o)
                0x00005358                uip_ds6_get_link_local
 .text.uip_ds6_maddr_add
                0x0000539c       0x50 contiki-cc13xx.a(uip-ds6.o)
                0x0000539c                uip_ds6_maddr_add
 .text.uip_ds6_addr_add
                0x000053ec       0xa8 contiki-cc13xx.a(uip-ds6.o)
                0x000053ec                uip_ds6_addr_add
 .text.uip_ds6_maddr_lookup
                0x00005494       0x30 contiki-cc13xx.a(uip-ds6.o)
                0x00005494                uip_ds6_maddr_lookup
 .text.uip_ds6_addr_rm
                0x000054c4       0x48 contiki-cc13xx.a(uip-ds6.o)
                0x000054c4                uip_ds6_addr_rm
 .text.uip_ds6_periodic
                0x0000550c       0x60 contiki-cc13xx.a(uip-ds6.o)
                0x0000550c                uip_ds6_periodic
 .text.uip_ds6_select_src
                0x0000556c       0xf4 contiki-cc13xx.a(uip-ds6.o)
                0x0000556c                uip_ds6_select_src
 .text.uip_ds6_set_addr_iid
                0x00005660       0x14 contiki-cc13xx.a(uip-ds6.o)
                0x00005660                uip_ds6_set_addr_iid
 .text.uip_ds6_compute_reachable_time
                0x00005674       0x28 contiki-cc13xx.a(uip-ds6.o)
                0x00005674                uip_ds6_compute_reachable_time
 .text.uip_ds6_init
                0x0000569c       0xf8 contiki-cc13xx.a(uip-ds6.o)
                0x0000569c                uip_ds6_init
 .text.call_route_callback
                0x00005794       0x48 contiki-cc13xx.a(uip-ds6-route.o)
 .text.uip_ds6_route_init
                0x000057dc       0x24 contiki-cc13xx.a(uip-ds6-route.o)
                0x000057dc                uip_ds6_route_init
 .text.uip_ds6_defrt_rm
                0x00005800       0x48 contiki-cc13xx.a(uip-ds6-route.o)
                0x00005800                uip_ds6_defrt_rm
 .text.uip_ds6_defrt_lookup
                0x00005848       0x34 contiki-cc13xx.a(uip-ds6-route.o)
                0x00005848                uip_ds6_defrt_lookup
 .text.uip_ds6_defrt_add
                0x0000587c       0x5c contiki-cc13xx.a(uip-ds6-route.o)
                0x0000587c                uip_ds6_defrt_add
 .text.uip_ds6_defrt_choose
                0x000058d8       0x34 contiki-cc13xx.a(uip-ds6-route.o)
                0x000058d8                uip_ds6_defrt_choose
 .text.uip_ds6_defrt_periodic
                0x0000590c       0x3c contiki-cc13xx.a(uip-ds6-route.o)
                0x0000590c                uip_ds6_defrt_periodic
 .text.chksum   0x00005948       0x50 contiki-cc13xx.a(uip6.o)
 .text.upper_layer_chksum
                0x00005998       0x58 contiki-cc13xx.a(uip6.o)
 .text.ext_hdr_options_process
                0x000059f0       0x7c contiki-cc13xx.a(uip6.o)
 .text.uip_icmp6chksum
                0x00005a6c        0x8 contiki-cc13xx.a(uip6.o)
                0x00005a6c                uip_icmp6chksum
 .text.uip_init
                0x00005a74       0x50 contiki-cc13xx.a(uip6.o)
                0x00005a74                uip_init
 .text.remove_ext_hdr
                0x00005ac4       0x60 contiki-cc13xx.a(uip6.o)
                0x00005ac4                remove_ext_hdr
 .text.uip_udp_new
                0x00005b24       0xd4 contiki-cc13xx.a(uip6.o)
                0x00005b24                uip_udp_new
 .text.uip_process
                0x00005bf8      0x4e4 contiki-cc13xx.a(uip6.o)
                0x00005bf8                uip_process
 .text.uip_htons
                0x000060dc        0x8 contiki-cc13xx.a(uip6.o)
                0x000060dc                uip_htons
 .text.uip_ds6_nbr_rm
                0x000060e4       0x20 contiki-cc13xx.a(uip-ds6-nbr.o)
                0x000060e4                uip_ds6_nbr_rm
 .text.uip_ds6_neighbors_init
                0x00006104       0x14 contiki-cc13xx.a(uip-ds6-nbr.o)
                0x00006104                uip_ds6_neighbors_init
 .text.uip_ds6_nbr_add
                0x00006118       0x54 contiki-cc13xx.a(uip-ds6-nbr.o)
                0x00006118                uip_ds6_nbr_add
 .text.uip_ds6_nbr_get_ll
                0x0000616c       0x10 contiki-cc13xx.a(uip-ds6-nbr.o)
                0x0000616c                uip_ds6_nbr_get_ll
 .text.uip_ds6_nbr_num
                0x0000617c       0x28 contiki-cc13xx.a(uip-ds6-nbr.o)
                0x0000617c                uip_ds6_nbr_num
 .text.uip_ds6_nbr_lookup
                0x000061a4       0x3c contiki-cc13xx.a(uip-ds6-nbr.o)
                0x000061a4                uip_ds6_nbr_lookup
 .text.uip_ds6_nbr_ipaddr_from_lladdr
                0x000061e0       0x10 contiki-cc13xx.a(uip-ds6-nbr.o)
                0x000061e0                uip_ds6_nbr_ipaddr_from_lladdr
 .text.uip_ds6_nbr_lladdr_from_ipaddr
                0x000061f0       0x1c contiki-cc13xx.a(uip-ds6-nbr.o)
                0x000061f0                uip_ds6_nbr_lladdr_from_ipaddr
 .text.uip_ds6_link_neighbor_callback
                0x0000620c       0xfc contiki-cc13xx.a(uip-ds6-nbr.o)
                0x0000620c                uip_ds6_link_neighbor_callback
 .text.uip_ds6_neighbor_periodic
                0x00006308       0x70 contiki-cc13xx.a(uip-ds6-nbr.o)
                0x00006308                uip_ds6_neighbor_periodic
 .text.uip_nd6_init
                0x00006378        0x4 contiki-cc13xx.a(uip-nd6.o)
                0x00006378                uip_nd6_init
 .text.sicslowpan_init
                0x0000637c       0x24 contiki-cc13xx.a(sicslowpan.o)
                0x0000637c                sicslowpan_init
 .text.set_packet_attrs
                0x000063a0       0x4c contiki-cc13xx.a(sicslowpan.o)
 .text.compress_addr_64
                0x000063ec       0x9c contiki-cc13xx.a(sicslowpan.o)
 .text.addr_context_lookup_by_prefix
                0x00006488       0x28 contiki-cc13xx.a(sicslowpan.o)
 .text.packet_sent
                0x000064b0       0x28 contiki-cc13xx.a(sicslowpan.o)
 .text.uncompress_addr
                0x000064d8       0xb8 contiki-cc13xx.a(sicslowpan.o)
 .text.output   0x00006590      0x600 contiki-cc13xx.a(sicslowpan.o)
 .text.input    0x00006b90      0x48c contiki-cc13xx.a(sicslowpan.o)
 .text.uip_debug_ipaddr_print
                0x0000701c       0xb0 contiki-cc13xx.a(uip-debug.o)
                0x0000701c                uip_debug_ipaddr_print
 .text.uip_udp_packet_sendto
                0x000070cc       0x58 contiki-cc13xx.a(uip-udp-packet.)
                0x000070cc                uip_udp_packet_sendto
 .text.uip_udp_received_data_preprocess
                0x00007124       0x2c contiki-cc13xx.a(uip-udp-packet.)
                0x00007124                uip_udp_received_data_preprocess
 .text.tcpip_output
                0x00007150       0x10 contiki-cc13xx.a(tcpip.o)
                0x00007150                tcpip_output
 .text.tcpip_set_outputfunc
                0x00007160        0xc contiki-cc13xx.a(tcpip.o)
                0x00007160                tcpip_set_outputfunc
 .text.udp_new  0x0000716c       0x18 contiki-cc13xx.a(tcpip.o)
                0x0000716c                udp_new
 .text.tcpip_icmp6_call
                0x00007184       0x28 contiki-cc13xx.a(tcpip.o)
                0x00007184                tcpip_icmp6_call
 .text.tcpip_input
                0x000071ac       0x24 contiki-cc13xx.a(tcpip.o)
                0x000071ac                tcpip_input
 .text.tcpip_ipv6_output
                0x000071d0       0xe8 contiki-cc13xx.a(tcpip.o)
                0x000071d0                tcpip_ipv6_output
 .text.process_thread_tcpip_process
                0x000072b8       0xf0 contiki-cc13xx.a(tcpip.o)
 .text.tcpip_uipcall
                0x000073a8       0x2c contiki-cc13xx.a(tcpip.o)
                0x000073a8                tcpip_uipcall
 .text.lollipop_greater_than
                0x000073d4       0x3c contiki-cc13xx.a(rpl-dag.o)
 .text.get_dag  0x00007410       0x3c contiki-cc13xx.a(rpl-dag.o)
 .text.rpl_set_preferred_parent
                0x0000744c       0x2c contiki-cc13xx.a(rpl-dag.o)
 .text.set_ip_from_prefix
                0x00007478       0x2c contiki-cc13xx.a(rpl-dag.o)
 .text.check_prefix
                0x000074a4       0x78 contiki-cc13xx.a(rpl-dag.o)
 .text.find_parent_any_dag_any_instance
                0x0000751c       0x1c contiki-cc13xx.a(rpl-dag.o)
 .text.rpl_get_nbr
                0x00007538       0x28 contiki-cc13xx.a(rpl-dag.o)
                0x00007538                rpl_get_nbr
 .text.rpl_dag_init
                0x00007560       0x14 contiki-cc13xx.a(rpl-dag.o)
                0x00007560                rpl_dag_init
 .text.rpl_get_parent_ipaddr
                0x00007574       0x18 contiki-cc13xx.a(rpl-dag.o)
                0x00007574                rpl_get_parent_ipaddr
 .text.rpl_get_dag
                0x0000758c        0x4 contiki-cc13xx.a(rpl-dag.o)
                0x0000758c                rpl_get_dag
 .text.rpl_set_prefix
                0x00007590       0x98 contiki-cc13xx.a(rpl-dag.o)
                0x00007590                rpl_set_prefix
 .text.rpl_set_default_route
                0x00007628       0x34 contiki-cc13xx.a(rpl-dag.o)
                0x00007628                rpl_set_default_route
 .text.rpl_alloc_instance
                0x0000765c       0x2c contiki-cc13xx.a(rpl-dag.o)
                0x0000765c                rpl_alloc_instance
 .text.rpl_alloc_dag
                0x00007688       0x5c contiki-cc13xx.a(rpl-dag.o)
                0x00007688                rpl_alloc_dag
 .text.rpl_add_parent
                0x000076e4       0x44 contiki-cc13xx.a(rpl-dag.o)
                0x000076e4                rpl_add_parent
 .text.rpl_find_parent_any_dag
                0x00007728       0x20 contiki-cc13xx.a(rpl-dag.o)
                0x00007728                rpl_find_parent_any_dag
 .text.rpl_select_parent
                0x00007748       0x84 contiki-cc13xx.a(rpl-dag.o)
                0x00007748                rpl_select_parent
 .text.rpl_select_dag
                0x000077cc      0x134 contiki-cc13xx.a(rpl-dag.o)
                0x000077cc                rpl_select_dag
 .text.rpl_nullify_parent
                0x00007900       0x40 contiki-cc13xx.a(rpl-dag.o)
                0x00007900                rpl_nullify_parent
 .text.rpl_remove_parent
                0x00007940       0x1c contiki-cc13xx.a(rpl-dag.o)
                0x00007940                rpl_remove_parent
 .text.nbr_callback
                0x0000795c        0x4 contiki-cc13xx.a(rpl-dag.o)
 .text.remove_parents.constprop.4
                0x00007960       0x44 contiki-cc13xx.a(rpl-dag.o)
 .text.rpl_free_dag
                0x000079a4       0x28 contiki-cc13xx.a(rpl-dag.o)
                0x000079a4                rpl_free_dag
 .text.rpl_free_instance
                0x000079cc       0x6c contiki-cc13xx.a(rpl-dag.o)
                0x000079cc                rpl_free_instance
 .text.rpl_move_parent
                0x00007a38       0x40 contiki-cc13xx.a(rpl-dag.o)
                0x00007a38                rpl_move_parent
 .text.rpl_get_any_dag
                0x00007a78       0x18 contiki-cc13xx.a(rpl-dag.o)
                0x00007a78                rpl_get_any_dag
 .text.rpl_get_instance
                0x00007a90       0x20 contiki-cc13xx.a(rpl-dag.o)
                0x00007a90                rpl_get_instance
 .text.rpl_join_instance
                0x00007ab0      0x130 contiki-cc13xx.a(rpl-dag.o)
                0x00007ab0                rpl_join_instance
 .text.rpl_local_repair
                0x00007be0       0x50 contiki-cc13xx.a(rpl-dag.o)
                0x00007be0                rpl_local_repair
 .text.rpl_process_parent_event
                0x00007c30       0x60 contiki-cc13xx.a(rpl-dag.o)
                0x00007c30                rpl_process_parent_event
 .text.rpl_recalculate_ranks
                0x00007c90       0x50 contiki-cc13xx.a(rpl-dag.o)
                0x00007c90                rpl_recalculate_ranks
 .text.rpl_process_dio
                0x00007ce0      0x298 contiki-cc13xx.a(rpl-dag.o)
                0x00007ce0                rpl_process_dio
 .text.handle_periodic_timer
                0x00007f78       0x34 contiki-cc13xx.a(rpl-timers.o)
 .text.handle_dio_timer
                0x00007fac       0xd4 contiki-cc13xx.a(rpl-timers.o)
 .text.rpl_reset_periodic_timer
                0x00008080       0x3c contiki-cc13xx.a(rpl-timers.o)
                0x00008080                rpl_reset_periodic_timer
 .text.rpl_reset_dio_timer
                0x000080bc       0x38 contiki-cc13xx.a(rpl-timers.o)
                0x000080bc                rpl_reset_dio_timer
 .text.rpl_link_neighbor_callback
                0x000080f4       0x78 contiki-cc13xx.a(rpl.o)
                0x000080f4                rpl_link_neighbor_callback
 .text.rpl_ipv6_neighbor_callback
                0x0000816c       0x30 contiki-cc13xx.a(rpl.o)
                0x0000816c                rpl_ipv6_neighbor_callback
 .text.rpl_init
                0x0000819c       0x58 contiki-cc13xx.a(rpl.o)
                0x0000819c                rpl_init
 .text.reset    0x000081f4        0x4 contiki-cc13xx.a(rpl-mrhof.o)
 .text.update_metric_container
                0x000081f8        0x8 contiki-cc13xx.a(rpl-mrhof.o)
 .text.calculate_rank
                0x00008200       0x44 contiki-cc13xx.a(rpl-mrhof.o)
 .text.neighbor_link_callback
                0x00008244       0x5c contiki-cc13xx.a(rpl-mrhof.o)
 .text.best_dag
                0x000082a0       0x2c contiki-cc13xx.a(rpl-mrhof.o)
 .text.best_parent
                0x000082cc       0x60 contiki-cc13xx.a(rpl-mrhof.o)
 .text.TrimAfterColdResetWakeupFromShutDown
                0x0000832c       0xd8 contiki-cc13xx.a(setup.o)
 .text.NOROM_SetupTrimDevice
                0x00008404       0xa4 contiki-cc13xx.a(setup.o)
                0x00008404                NOROM_SetupTrimDevice
 .text.NOROM_OSCClockSourceSet
                0x000084a8       0x60 contiki-cc13xx.a(osc.o)
                0x000084a8                NOROM_OSCClockSourceSet
 .text.NOROM_OSCClockSourceGet
                0x00008508       0x2c contiki-cc13xx.a(osc.o)
                0x00008508                NOROM_OSCClockSourceGet
 .text.NOROM_SetupGetTrimForXoscHfCtl.part.3
                0x00008534       0x20 contiki-cc13xx.a(setup_rom.o)
 .text.NOROM_SetupGetTrimForRadcExtCfg.part.4
                0x00008554       0x20 contiki-cc13xx.a(setup_rom.o)
 .text.NOROM_SetupSetVddrLevel
                0x00008574       0xa4 contiki-cc13xx.a(setup_rom.o)
                0x00008574                NOROM_SetupSetVddrLevel
 .text.NOROM_SetupAfterColdResetWakeupFromShutDownCfg1
                0x00008618       0xc0 contiki-cc13xx.a(setup_rom.o)
                0x00008618                NOROM_SetupAfterColdResetWakeupFromShutDownCfg1
 .text.NOROM_SetupAfterColdResetWakeupFromShutDownCfg3
                0x000086d8      0x194 contiki-cc13xx.a(setup_rom.o)
                0x000086d8                NOROM_SetupAfterColdResetWakeupFromShutDownCfg3
 .text.NOROM_SetupGetTrimForAnabypassValue1
                0x0000886c       0x64 contiki-cc13xx.a(setup_rom.o)
                0x0000886c                NOROM_SetupGetTrimForAnabypassValue1
 .text.NOROM_SetupGetTrimForAmpcompCtrl
                0x000088d0       0x74 contiki-cc13xx.a(setup_rom.o)
                0x000088d0                NOROM_SetupGetTrimForAmpcompCtrl
 .text.NOROM_SetupAfterColdResetWakeupFromShutDownCfg2
                0x00008944      0x19c contiki-cc13xx.a(setup_rom.o)
                0x00008944                NOROM_SetupAfterColdResetWakeupFromShutDownCfg2
 .text.NOROM_SetupSetCacheModeAccordingToCcfgSetting
                0x00008ae0       0x6c contiki-cc13xx.a(setup_rom.o)
                0x00008ae0                NOROM_SetupSetCacheModeAccordingToCcfgSetting
 .text.NOROM_CPUcpsid
                0x00008b4c        0x8 contiki-cc13xx.a(cpu.o)
                0x00008b4c                NOROM_CPUcpsid
 .text.NOROM_CPUcpsie
                0x00008b54        0x8 contiki-cc13xx.a(cpu.o)
                0x00008b54                NOROM_CPUcpsie
 .text.NOROM_DDI32RegWrite
                0x00008b5c       0x34 contiki-cc13xx.a(ddi.o)
                0x00008b5c                NOROM_DDI32RegWrite
 .text.NOROM_RFCRTrim
                0x00008b90      0x138 contiki-cc13xx.a(rfc.o)
                0x00008b90                NOROM_RFCRTrim
 .text.NOROM_RFCAdi3VcoLdoVoltageMode
                0x00008cc8       0x20 contiki-cc13xx.a(rfc.o)
                0x00008cc8                NOROM_RFCAdi3VcoLdoVoltageMode
 .text.NOROM_ChipInfo_GetChipFamily
                0x00008ce8       0x50 contiki-cc13xx.a(chipinfo.o)
                0x00008ce8                NOROM_ChipInfo_GetChipFamily
 .text.NOROM_ChipInfo_GetChipType
                0x00008d38       0x30 contiki-cc13xx.a(chipinfo.o)
                0x00008d38                NOROM_ChipInfo_GetChipType
 .text.NOROM_ChipInfo_GetHwRevision
                0x00008d68       0x70 contiki-cc13xx.a(chipinfo.o)
                0x00008d68                NOROM_ChipInfo_GetHwRevision
 .text.NOROM_ThisCodeIsBuiltForCC13xxHwRev20AndLater_HaltIfViolated
                0x00008dd8       0x18 contiki-cc13xx.a(chipinfo.o)
                0x00008dd8                NOROM_ThisCodeIsBuiltForCC13xxHwRev20AndLater_HaltIfViolated
 .text.SafeHapiVoid
                0x00008df0       0x2c contiki-cc13xx.a(adi.o)
                0x00008df0                SafeHapiVoid
 .text.NOROM_SysCtrlSetRechargeBeforePowerDown
                0x00008e1c      0x2b0 contiki-cc13xx.a(sys_ctrl.o)
                0x00008e1c                NOROM_SysCtrlSetRechargeBeforePowerDown
 .text.NOROM_SysCtrlAdjustRechargeAfterPowerDown
                0x000090cc       0x64 contiki-cc13xx.a(sys_ctrl.o)
                0x000090cc                NOROM_SysCtrlAdjustRechargeAfterPowerDown
 .text.NOROM_SysCtrl_DCDC_VoltageConditionalControl
                0x00009130       0x7c contiki-cc13xx.a(sys_ctrl.o)
                0x00009130                NOROM_SysCtrl_DCDC_VoltageConditionalControl
 .text.NOROM_PowerCtrlSourceSet
                0x000091ac       0x30 contiki-cc13xx.a(pwr_ctrl.o)
                0x000091ac                NOROM_PowerCtrlSourceSet
 .text.NOROM_TRNGConfigure
                0x000091dc       0x38 contiki-cc13xx.a(trng.o)
                0x000091dc                NOROM_TRNGConfigure
 .text.NOROM_AONRTCCurrentCompareValueGet
                0x00009214       0x24 contiki-cc13xx.a(aon_rtc.o)
                0x00009214                NOROM_AONRTCCurrentCompareValueGet
 .text.NOROM_AONBatMonTemperatureGetDegC
                0x00009238       0x30 contiki-cc13xx.a(aon_batmon.o)
                0x00009238                NOROM_AONBatMonTemperatureGetDegC
 .text.orpl_bitmap_current_rank
                0x00009268       0x14 contiki-cc13xx.a(orpl-bitmap.o)
                0x00009268                orpl_bitmap_current_rank
 .text.orpl_bitmap_root_rank
                0x0000927c       0x18 contiki-cc13xx.a(orpl-bitmap.o)
                0x0000927c                orpl_bitmap_root_rank
 .text.orpl_bitmap_satisfy_fwd
                0x00009294       0x34 contiki-cc13xx.a(orpl-bitmap.o)
                0x00009294                orpl_bitmap_satisfy_fwd
 .text.lladdr_from_ipaddr_uuid
                0x000092c8       0x14 contiki-cc13xx.a(orpl-bitmap.o)
                0x000092c8                lladdr_from_ipaddr_uuid
 .text.orpl_bitmap_duplicate_detect
                0x000092dc       0x4c contiki-cc13xx.a(orpl-bitmap.o)
                0x000092dc                orpl_bitmap_duplicate_detect
 .text.orpl_bitmap_duplicate_register
                0x00009328       0x54 contiki-cc13xx.a(orpl-bitmap.o)
                0x00009328                orpl_bitmap_duplicate_register
 .text.orpl_bitmap_get_current_seqno
                0x0000937c       0x30 contiki-cc13xx.a(orpl-bitmap.o)
                0x0000937c                orpl_bitmap_get_current_seqno
 .text.get_orpl_packet_seqno
                0x000093ac       0x20 contiki-cc13xx.a(orpl-bitmap.o)
                0x000093ac                get_orpl_packet_seqno
 .text.orpl_bitmap_init
                0x000093cc        0x4 contiki-cc13xx.a(orpl-bitmap.o)
                0x000093cc                orpl_bitmap_init
 .text.orpl_get_parent_ipaddr
                0x000093d0        0x4 contiki-cc13xx.a(orpl-bitmap.o)
                0x000093d0                orpl_get_parent_ipaddr
 .text.queuebuf_init
                0x000093d4       0x1c contiki-cc13xx.a(queuebuf.o)
                0x000093d4                queuebuf_init
 .text.queuebuf_new_from_packetbuf
                0x000093f0       0x48 contiki-cc13xx.a(queuebuf.o)
                0x000093f0                queuebuf_new_from_packetbuf
 .text.queuebuf_update_attr_from_packetbuf
                0x00009438        0xc contiki-cc13xx.a(queuebuf.o)
                0x00009438                queuebuf_update_attr_from_packetbuf
 .text.queuebuf_update_from_packetbuf
                0x00009444       0x1c contiki-cc13xx.a(queuebuf.o)
                0x00009444                queuebuf_update_from_packetbuf
 .text.queuebuf_free
                0x00009460       0x2c contiki-cc13xx.a(queuebuf.o)
                0x00009460                queuebuf_free
 .text.queuebuf_to_packetbuf
                0x0000948c       0x30 contiki-cc13xx.a(queuebuf.o)
                0x0000948c                queuebuf_to_packetbuf
 .text.queuebuf_attr
                0x000094bc        0xc contiki-cc13xx.a(queuebuf.o)
                0x000094bc                queuebuf_attr
 .text.nbr_set_bit
                0x000094c8       0x4c contiki-cc13xx.a(nbr-table.o)
 .text.index_from_lladdr
                0x00009514       0x50 contiki-cc13xx.a(nbr-table.o)
 .text.nbr_get_bit.constprop.0
                0x00009564       0x2c contiki-cc13xx.a(nbr-table.o)
 .text.nbr_table_register
                0x00009590       0x2c contiki-cc13xx.a(nbr-table.o)
                0x00009590                nbr_table_register
 .text.nbr_table_next
                0x000095bc       0x70 contiki-cc13xx.a(nbr-table.o)
                0x000095bc                nbr_table_next
 .text.nbr_table_head
                0x0000962c       0x58 contiki-cc13xx.a(nbr-table.o)
                0x0000962c                nbr_table_head
 .text.nbr_table_add_lladdr
                0x00009684      0x190 contiki-cc13xx.a(nbr-table.o)
                0x00009684                nbr_table_add_lladdr
 .text.nbr_table_get_from_lladdr
                0x00009814       0x34 contiki-cc13xx.a(nbr-table.o)
                0x00009814                nbr_table_get_from_lladdr
 .text.nbr_table_remove
                0x00009848       0x2c contiki-cc13xx.a(nbr-table.o)
                0x00009848                nbr_table_remove
 .text.nbr_table_lock
                0x00009874       0x14 contiki-cc13xx.a(nbr-table.o)
                0x00009874                nbr_table_lock
 .text.nbr_table_unlock
                0x00009888       0x14 contiki-cc13xx.a(nbr-table.o)
                0x00009888                nbr_table_unlock
 .text.nbr_table_get_lladdr
                0x0000989c       0x30 contiki-cc13xx.a(nbr-table.o)
                0x0000989c                nbr_table_get_lladdr
 .text.packetbuf_copyto
                0x000098cc       0x50 contiki-cc13xx.a(packetbuf.o)
                0x000098cc                packetbuf_copyto
 .text.packetbuf_hdralloc
                0x0000991c       0x48 contiki-cc13xx.a(packetbuf.o)
                0x0000991c                packetbuf_hdralloc
 .text.packetbuf_hdrreduce
                0x00009964       0x2c contiki-cc13xx.a(packetbuf.o)
                0x00009964                packetbuf_hdrreduce
 .text.packetbuf_set_datalen
                0x00009990        0xc contiki-cc13xx.a(packetbuf.o)
                0x00009990                packetbuf_set_datalen
 .text.packetbuf_dataptr
                0x0000999c       0x14 contiki-cc13xx.a(packetbuf.o)
                0x0000999c                packetbuf_dataptr
 .text.packetbuf_hdrptr
                0x000099b0       0x14 contiki-cc13xx.a(packetbuf.o)
                0x000099b0                packetbuf_hdrptr
 .text.packetbuf_datalen
                0x000099c4        0xc contiki-cc13xx.a(packetbuf.o)
                0x000099c4                packetbuf_datalen
 .text.packetbuf_totlen
                0x000099d0       0x28 contiki-cc13xx.a(packetbuf.o)
                0x000099d0                packetbuf_totlen
 .text.packetbuf_attr_clear
                0x000099f8       0x38 contiki-cc13xx.a(packetbuf.o)
                0x000099f8                packetbuf_attr_clear
 .text.packetbuf_clear
                0x00009a30       0x34 contiki-cc13xx.a(packetbuf.o)
                0x00009a30                packetbuf_clear
 .text.packetbuf_copyfrom
                0x00009a64       0x2c contiki-cc13xx.a(packetbuf.o)
                0x00009a64                packetbuf_copyfrom
 .text.packetbuf_attr_copyto
                0x00009a90       0x44 contiki-cc13xx.a(packetbuf.o)
                0x00009a90                packetbuf_attr_copyto
 .text.packetbuf_attr_copyfrom
                0x00009ad4       0x44 contiki-cc13xx.a(packetbuf.o)
                0x00009ad4                packetbuf_attr_copyfrom
 .text.packetbuf_set_attr
                0x00009b18       0x10 contiki-cc13xx.a(packetbuf.o)
                0x00009b18                packetbuf_set_attr
 .text.packetbuf_attr
                0x00009b28        0xc contiki-cc13xx.a(packetbuf.o)
                0x00009b28                packetbuf_attr
 .text.packetbuf_set_addr
                0x00009b34       0x18 contiki-cc13xx.a(packetbuf.o)
                0x00009b34                packetbuf_set_addr
 .text.packetbuf_addr
                0x00009b4c       0x10 contiki-cc13xx.a(packetbuf.o)
                0x00009b4c                packetbuf_addr
 .text.packetbuf_holds_broadcast
                0x00009b5c       0x10 contiki-cc13xx.a(packetbuf.o)
                0x00009b5c                packetbuf_holds_broadcast
 .text.netstack_init
                0x00009b6c       0x38 contiki-cc13xx.a(netstack.o)
                0x00009b6c                netstack_init
 .text.linkaddr_copy
                0x00009ba4        0xc contiki-cc13xx.a(linkaddr.o)
                0x00009ba4                linkaddr_copy
 .text.linkaddr_cmp
                0x00009bb0       0x10 contiki-cc13xx.a(linkaddr.o)
                0x00009bb0                linkaddr_cmp
 .text.parse    0x00009bc0       0x94 contiki-cc13xx.a(framer-802154.o)
 .text.create_frame.isra.0
                0x00009c54      0x128 contiki-cc13xx.a(framer-802154.o)
 .text.create   0x00009d7c        0x8 contiki-cc13xx.a(framer-802154.o)
 .text.hdr_length
                0x00009d84        0x8 contiki-cc13xx.a(framer-802154.o)
 .text.input_packet
                0x00009d8c        0xc contiki-cc13xx.a(csma.o)
 .text.on       0x00009d98        0xc contiki-cc13xx.a(csma.o)
 .text.off      0x00009da4        0xc contiki-cc13xx.a(csma.o)
 .text.channel_check_interval
                0x00009db0       0x10 contiki-cc13xx.a(csma.o)
 .text.transmit_packet_list
                0x00009dc0       0x34 contiki-cc13xx.a(csma.o)
 .text.free_packet
                0x00009df4       0x98 contiki-cc13xx.a(csma.o)
 .text.packet_sent
                0x00009e8c      0x108 contiki-cc13xx.a(csma.o)
 .text.send_packet
                0x00009f94      0x164 contiki-cc13xx.a(csma.o)
 .text.init     0x0000a0f8       0x24 contiki-cc13xx.a(csma.o)
 .text.field_len
                0x0000a11c       0x88 contiki-cc13xx.a(frame802154.o)
 .text.frame802154_hdrlen
                0x0000a1a4       0x54 contiki-cc13xx.a(frame802154.o)
                0x0000a1a4                frame802154_hdrlen
 .text.frame802154_create
                0x0000a1f8      0x10c contiki-cc13xx.a(frame802154.o)
                0x0000a1f8                frame802154_create
 .text.frame802154_parse
                0x0000a304      0x150 contiki-cc13xx.a(frame802154.o)
                0x0000a304                frame802154_parse
 .text.mac_call_sent_callback
                0x0000a454       0x10 contiki-cc13xx.a(mac.o)
                0x0000a454                mac_call_sent_callback
 .text.duty_cycle
                0x0000a464        0x4 contiki-cc13xx.a(contikimac-fcf.)
 .text.init     0x0000a468       0x70 contiki-cc13xx.a(contikimac-fcf.)
 .text.on       0x0000a4d8       0x2c contiki-cc13xx.a(contikimac-fcf.)
 .text.off      0x0000a504       0x38 contiki-cc13xx.a(contikimac-fcf.)
 .text.recv_burst_off
                0x0000a53c       0x14 contiki-cc13xx.a(contikimac-fcf.)
 .text.input_packet
                0x0000a550      0x180 contiki-cc13xx.a(contikimac-fcf.)
 .text.powercycle_turn_radio_off.part.2
                0x0000a6d0       0x10 contiki-cc13xx.a(contikimac-fcf.)
 .text.turn_off
                0x0000a6e0       0x48 contiki-cc13xx.a(contikimac-fcf.)
 .text.turn_on  0x0000a728       0x48 contiki-cc13xx.a(contikimac-fcf.)
 .text.schedule_powercycle_fixed.part.5
                0x0000a770       0x40 contiki-cc13xx.a(contikimac-fcf.)
 .text.send_packet.isra.7.constprop.9
                0x0000a7b0      0x47c contiki-cc13xx.a(contikimac-fcf.)
 .text.qsend_packet
                0x0000ac2c       0x40 contiki-cc13xx.a(contikimac-fcf.)
 .text.qsend_list
                0x0000ac6c       0xe8 contiki-cc13xx.a(contikimac-fcf.)
 .text.powercycle_wrapper
                0x0000ad54      0x320 contiki-cc13xx.a(contikimac-fcf.)
 .text.set_cycletime
                0x0000b074       0x30 contiki-cc13xx.a(contikimac-fcf.)
                0x0000b074                set_cycletime
 .text.get_cycle_time
                0x0000b0a4        0xc contiki-cc13xx.a(contikimac-fcf.)
                0x0000b0a4                get_cycle_time
 .text.reset_contikimac_rtimer
                0x0000b0b0       0x44 contiki-cc13xx.a(contikimac-fcf.)
                0x0000b0b0                reset_contikimac_rtimer
 .text.get_rdc_active_channel_check_rate
                0x0000b0f4        0xc contiki-cc13xx.a(contikimac-fcf.)
                0x0000b0f4                get_rdc_active_channel_check_rate
 .text.init     0x0000b100        0x4 contiki-cc13xx.a(nullsec.o)
 .text.input    0x0000b104        0xc contiki-cc13xx.a(nullsec.o)
 .text.send     0x0000b110       0x20 contiki-cc13xx.a(nullsec.o)
 .text.rnfd_root_input
                0x0000b130       0xb4 contiki-cc13xx.a(rnfd-root.o)
                0x0000b130                rnfd_root_input
 .text.rnfd_global
                0x0000b1e4        0x8 contiki-cc13xx.a(rnfd.o)
 .text.rnfd_info_get
                0x0000b1ec       0x44 contiki-cc13xx.a(rnfd.o)
 .text.rnfd_root_neighbor
                0x0000b230       0x44 contiki-cc13xx.a(rnfd.o)
 .text.rnfd_suspect_out
                0x0000b274       0x98 contiki-cc13xx.a(rnfd.o)
 .text.rnfd_offline_out
                0x0000b30c       0x54 contiki-cc13xx.a(rnfd.o)
 .text.rnfd_free_dag
                0x0000b360       0x74 contiki-cc13xx.a(rnfd.o)
 .text.get_rnfd_start_flag
                0x0000b3d4        0xc contiki-cc13xx.a(rnfd.o)
                0x0000b3d4                get_rnfd_start_flag
 .text.get_rnfd_offline_nodag
                0x0000b3e0        0xc contiki-cc13xx.a(rnfd.o)
                0x0000b3e0                get_rnfd_offline_nodag
 .text.rnfd_set_root_immediate_children
                0x0000b3ec        0xc contiki-cc13xx.a(rnfd.o)
                0x0000b3ec                rnfd_set_root_immediate_children
 .text.rnfd_info_enter_blacklist
                0x0000b3f8       0x48 contiki-cc13xx.a(rnfd.o)
                0x0000b3f8                rnfd_info_enter_blacklist
 .text.rnfd_info_add
                0x0000b440       0xb8 contiki-cc13xx.a(rnfd.o)
                0x0000b440                rnfd_info_add
 .text.rnfd_info_get_state
                0x0000b4f8       0x20 contiki-cc13xx.a(rnfd.o)
                0x0000b4f8                rnfd_info_get_state
 .text.rnfd_schdule_suspect_out
                0x0000b518       0x60 contiki-cc13xx.a(rnfd.o)
                0x0000b518                rnfd_schdule_suspect_out
 .text.rnfd_request_deal
                0x0000b578       0x2c contiki-cc13xx.a(rnfd.o)
                0x0000b578                rnfd_request_deal
 .text.rnfd_common_input
                0x0000b5a4      0x1b0 contiki-cc13xx.a(rnfd.o)
                0x0000b5a4                rnfd_common_input
 .text.rnfd_init
                0x0000b754       0x24 contiki-cc13xx.a(rnfd.o)
                0x0000b754                rnfd_init
 .text.random_delay
                0x0000b778       0x20 contiki-cc13xx.a(udp-fragment.o)
 .text.udp_fragment_frag_send
                0x0000b798      0x118 contiki-cc13xx.a(udp-fragment.o)
 .text.udp_fragment_packet_send
                0x0000b8b0      0x10c contiki-cc13xx.a(udp-fragment.o)
                0x0000b8b0                udp_fragment_packet_send
 .text.udp_fragment_send_callback
                0x0000b9bc       0x38 contiki-cc13xx.a(udp-fragment.o)
                0x0000b9bc                udp_fragment_send_callback
 .text.udp_fragment_init
                0x0000b9f4       0x20 contiki-cc13xx.a(udp-fragment.o)
                0x0000b9f4                udp_fragment_init
 .text.set_force_auto_sleep
                0x0000ba14       0x28 contiki-cc13xx.a(auto-sleep.o)
 .text.clear_force_auto_sleep
                0x0000ba3c        0xc contiki-cc13xx.a(auto-sleep.o)
                0x0000ba3c                clear_force_auto_sleep
 .text.get_force_auto_sleep
                0x0000ba48        0xc contiki-cc13xx.a(auto-sleep.o)
                0x0000ba48                get_force_auto_sleep
 .text.set_round_auto_sleep
                0x0000ba54        0xc contiki-cc13xx.a(auto-sleep.o)
                0x0000ba54                set_round_auto_sleep
 .text.get_round_auto_sleep
                0x0000ba60        0xc contiki-cc13xx.a(auto-sleep.o)
                0x0000ba60                get_round_auto_sleep
 .text.set_delay_auto_sleep
                0x0000ba6c       0x14 contiki-cc13xx.a(auto-sleep.o)
                0x0000ba6c                set_delay_auto_sleep
 .text.update_new_schedule
                0x0000ba80       0x44 contiki-cc13xx.a(netsynch.o)
                0x0000ba80                update_new_schedule
 .text.random_delay
                0x0000bac4       0x2c contiki-cc13xx.a(netsynch.o)
 .text.netsynch_send
                0x0000baf0       0xec contiki-cc13xx.a(netsynch.o)
 .text.netsynch_common_send
                0x0000bbdc       0x24 contiki-cc13xx.a(netsynch.o)
 .text.request_send
                0x0000bc00       0xb4 contiki-cc13xx.a(netsynch.o)
 .text.netsynch_is_synched
                0x0000bcb4       0x14 contiki-cc13xx.a(netsynch.o)
                0x0000bcb4                netsynch_is_synched
 .text.update_schedule
                0x0000bcc8       0x4c contiki-cc13xx.a(netsynch.o)
                0x0000bcc8                update_schedule
 .text.schedule_bitmap_get
                0x0000bd14       0x1c contiki-cc13xx.a(netsynch.o)
                0x0000bd14                schedule_bitmap_get
 .text.netsynch_cal_offset
                0x0000bd30       0x48 contiki-cc13xx.a(netsynch.o)
                0x0000bd30                netsynch_cal_offset
 .text.process_thread_netsynch_process
                0x0000bd78      0x3a8 contiki-cc13xx.a(netsynch.o)
 .text.netsynch_get_offset
                0x0000c120        0xc contiki-cc13xx.a(netsynch.o)
                0x0000c120                netsynch_get_offset
 .text.netsync_common_timesource
                0x0000c12c       0x74 contiki-cc13xx.a(netsynch.o)
                0x0000c12c                netsync_common_timesource
 .text.netsync_schedule_all_on
                0x0000c1a0       0x24 contiki-cc13xx.a(netsynch.o)
                0x0000c1a0                netsync_schedule_all_on
 .text.netsync_start_common_request
                0x0000c1c4       0x4c contiki-cc13xx.a(netsynch.o)
                0x0000c1c4                netsync_start_common_request
 .text.netsynch_init
                0x0000c210       0x5c contiki-cc13xx.a(netsynch.o)
                0x0000c210                netsynch_init
 .text.netsync_compute_autocal_interval
                0x0000c26c       0x40 contiki-cc13xx.a(netsync-auto-ca)
 .text.get_autocal_info
                0x0000c2ac        0x8 contiki-cc13xx.a(netsync-auto-ca)
                0x0000c2ac                get_autocal_info
 .text.netsync_cal_time_record
                0x0000c2b4       0x28 contiki-cc13xx.a(netsync-auto-ca)
                0x0000c2b4                netsync_cal_time_record
 .text.netsync_autocal_update
                0x0000c2dc       0xbc contiki-cc13xx.a(netsync-auto-ca)
                0x0000c2dc                netsync_autocal_update
 .text.netsync_autocal_init
                0x0000c398       0x20 contiki-cc13xx.a(netsync-auto-ca)
                0x0000c398                netsync_autocal_init
 .text.cache_wake_info
                0x0000c3b8       0x1c contiki-cc13xx.a(wake-common.o)
                0x0000c3b8                cache_wake_info
 .text.get_wake_info
                0x0000c3d4        0x8 contiki-cc13xx.a(wake-common.o)
                0x0000c3d4                get_wake_info
 .text.wake_sent_callback
                0x0000c3dc       0x80 contiki-cc13xx.a(wake-common.o)
                0x0000c3dc                wake_sent_callback
 .text.set_wake_send
                0x0000c45c        0xc contiki-cc13xx.a(wake-common.o)
                0x0000c45c                set_wake_send
 .text.get_wake_send
                0x0000c468        0xc contiki-cc13xx.a(wake-common.o)
                0x0000c468                get_wake_send
 .text.wake_common_init
                0x0000c474       0x28 contiki-cc13xx.a(wake-common.o)
                0x0000c474                wake_common_init
 .text.set_lowLatency_flag
                0x0000c49c       0xb0 contiki-cc13xx.a(low-latency.o)
                0x0000c49c                set_lowLatency_flag
 .text.get_lowLatency_flag
                0x0000c54c        0xc contiki-cc13xx.a(low-latency.o)
                0x0000c54c                get_lowLatency_flag
 .text.set_low_latency_channel_clear_flag
                0x0000c558        0xc contiki-cc13xx.a(low-latency.o)
                0x0000c558                set_low_latency_channel_clear_flag
 .text.set_low_latency_one_second_before
                0x0000c564        0xc contiki-cc13xx.a(low-latency.o)
                0x0000c564                set_low_latency_one_second_before
 .text.get_low_latency_one_second_before
                0x0000c570        0xc contiki-cc13xx.a(low-latency.o)
                0x0000c570                get_low_latency_one_second_before
 .text.read_flash
                0x0000c57c       0x3c contiki-cc13xx.a(flashdata.o)
                0x0000c57c                read_flash
 .text.write_to_flash
                0x0000c5b8      0x118 contiki-cc13xx.a(flashdata.o)
                0x0000c5b8                write_to_flash
 .text.aux_ctrl_power_up
                0x0000c6d0       0x28 contiki-cc13xx.a(aux-ctrl.o)
                0x0000c6d0                aux_ctrl_power_up
 .text.aux_ctrl_register_consumer
                0x0000c6f8       0x40 contiki-cc13xx.a(aux-ctrl.o)
                0x0000c6f8                aux_ctrl_register_consumer
 .text.aux_ctrl_power_down
                0x0000c738       0x6c contiki-cc13xx.a(aux-ctrl.o)
                0x0000c738                aux_ctrl_power_down
 .text.aux_ctrl_unregister_consumer
                0x0000c7a4       0x28 contiki-cc13xx.a(aux-ctrl.o)
                0x0000c7a4                aux_ctrl_unregister_consumer
 .text.init     0x0000c7cc       0x34 contiki-cc13xx.a(fcf.o)
 .text.mcast_fwd
                0x0000c800       0x28 contiki-cc13xx.a(fcf.o)
 .text.out      0x0000c828       0x58 contiki-cc13xx.a(fcf.o)
 .text.in       0x0000c880       0x8c contiki-cc13xx.a(fcf.o)
 .text.stimer_set
                0x0000c90c       0x10 contiki-cc13xx.a(stimer.o)
                0x0000c90c                stimer_set
 .text.stimer_expired
                0x0000c91c       0x20 contiki-cc13xx.a(stimer.o)
                0x0000c91c                stimer_expired
 .text.memb_init
                0x0000c93c       0x24 contiki-cc13xx.a(memb.o)
                0x0000c93c                memb_init
 .text.memb_alloc
                0x0000c960       0x3c contiki-cc13xx.a(memb.o)
                0x0000c960                memb_alloc
 .text.memb_free
                0x0000c99c       0x44 contiki-cc13xx.a(memb.o)
                0x0000c99c                memb_free
 .text.memb_inmemb
                0x0000c9e0       0x1c contiki-cc13xx.a(memb.o)
                0x0000c9e0                memb_inmemb
 .text.uip_icmp6_input
                0x0000c9fc       0x3c contiki-cc13xx.a(uip-icmp6.o)
                0x0000c9fc                uip_icmp6_input
 .text.uip_icmp6_register_input_handler
                0x0000ca38        0xc contiki-cc13xx.a(uip-icmp6.o)
                0x0000ca38                uip_icmp6_register_input_handler
 .text.uip_icmp6_send
                0x0000ca44       0x84 contiki-cc13xx.a(uip-icmp6.o)
                0x0000ca44                uip_icmp6_send
 .text.uip_icmp6_init
                0x0000cac8        0x4 contiki-cc13xx.a(uip-icmp6.o)
                0x0000cac8                uip_icmp6_init
 .text.get32    0x0000cacc       0x20 contiki-cc13xx.a(rpl-icmp6.o)
 .text.dio_input
                0x0000caec      0x2b8 contiki-cc13xx.a(rpl-icmp6.o)
 .text.dis_output
                0x0000cda4       0x58 contiki-cc13xx.a(rpl-icmp6.o)
                0x0000cda4                dis_output
 .text.dio_output
                0x0000cdfc      0x2f0 contiki-cc13xx.a(rpl-icmp6.o)
                0x0000cdfc                dio_output
 .text.dis_input
                0x0000d0ec       0x58 contiki-cc13xx.a(rpl-icmp6.o)
 .text.send_dio
                0x0000d144       0x28 contiki-cc13xx.a(rpl-icmp6.o)
 .text.rpl_icmp6_register_handlers
                0x0000d16c       0x1c contiki-cc13xx.a(rpl-icmp6.o)
                0x0000d16c                rpl_icmp6_register_handlers
 .text.NOROM_FlashSectorErase
                0x0000d188       0x1c contiki-cc13xx.a(flash.o)
                0x0000d188                NOROM_FlashSectorErase
 .text.NOROM_FlashProgram
                0x0000d1a4       0x1c contiki-cc13xx.a(flash.o)
                0x0000d1a4                NOROM_FlashProgram
 .text.NOROM_VIMSModeGet
                0x0000d1c0       0x10 contiki-cc13xx.a(vims.o)
                0x0000d1c0                NOROM_VIMSModeGet
 .text.mac_sequence_is_duplicate
                0x0000d1d0       0x3c contiki-cc13xx.a(mac-sequence.o)
                0x0000d1d0                mac_sequence_is_duplicate
 .text.mac_sequence_register_seqno
                0x0000d20c       0x70 contiki-cc13xx.a(mac-sequence.o)
                0x0000d20c                mac_sequence_register_seqno
 .text.rnfd_request_input
                0x0000d27c       0x48 contiki-cc13xx.a(rnfd-icmp6.o)
 .text.rnfd_input
                0x0000d2c4       0xa4 contiki-cc13xx.a(rnfd-icmp6.o)
 .text.rnfd_send
                0x0000d368       0xc0 contiki-cc13xx.a(rnfd-icmp6.o)
                0x0000d368                rnfd_send
 .text.rnfd_icmp6_register_handlers
                0x0000d428       0x1c contiki-cc13xx.a(rnfd-icmp6.o)
                0x0000d428                rnfd_icmp6_register_handlers
 .text.wake_dev_init
                0x0000d444       0x18 contiki-cc13xx.a(wake-dev.o)
                0x0000d444                wake_dev_init
 .text.wake_send
                0x0000d45c       0x64 contiki-cc13xx.a(wake-node.o)
                0x0000d45c                wake_send
 .text.process_thread_wake_node_process
                0x0000d4c0       0xcc contiki-cc13xx.a(wake-node.o)
 .text.wake_node_init
                0x0000d58c        0xc contiki-cc13xx.a(wake-node.o)
                0x0000d58c                wake_node_init
 .text          0x0000d598       0x30 /opt/my1310ARM/toolchain/gcc-arm-none-eabi-4_9-2015q3/bin/../lib/gcc/arm-none-eabi/4.9.3/armv7-m/libgcc.a(_aeabi_uldivmod.o)
                0x0000d598                __aeabi_uldivmod
 .text          0x0000d5c8       0x60 /opt/my1310ARM/toolchain/gcc-arm-none-eabi-4_9-2015q3/bin/../lib/gcc/arm-none-eabi/4.9.3/armv7-m/libgcc.a(bpabi.o)
                0x0000d5c8                __gnu_ldivmod_helper
                0x0000d5f8                __gnu_uldivmod_helper
 .text          0x0000d628        0x4 /opt/my1310ARM/toolchain/gcc-arm-none-eabi-4_9-2015q3/bin/../lib/gcc/arm-none-eabi/4.9.3/armv7-m/libgcc.a(_dvmd_tls.o)
                0x0000d628                __aeabi_ldiv0
                0x0000d628                __aeabi_idiv0
 .text          0x0000d62c      0x2ac /opt/my1310ARM/toolchain/gcc-arm-none-eabi-4_9-2015q3/bin/../lib/gcc/arm-none-eabi/4.9.3/armv7-m/libgcc.a(_divdi3.o)
                0x0000d62c                __divdi3
 .text          0x0000d8d8      0x270 /opt/my1310ARM/toolchain/gcc-arm-none-eabi-4_9-2015q3/bin/../lib/gcc/arm-none-eabi/4.9.3/armv7-m/libgcc.a(_udivdi3.o)
                0x0000d8d8                __udivdi3
 .text.malloc   0x0000db48       0x10 /opt/my1310ARM/toolchain/gcc-arm-none-eabi-4_9-2015q3/bin/../lib/gcc/arm-none-eabi/4.9.3/../../../../arm-none-eabi/lib/armv7-m/libc.a(lib_a-malloc.o)
                0x0000db48                malloc
 .text.free     0x0000db58       0x10 /opt/my1310ARM/toolchain/gcc-arm-none-eabi-4_9-2015q3/bin/../lib/gcc/arm-none-eabi/4.9.3/../../../../arm-none-eabi/lib/armv7-m/libc.a(lib_a-malloc.o)
                0x0000db58                free
 .text._malloc_r
                0x0000db68      0x50c /opt/my1310ARM/toolchain/gcc-arm-none-eabi-4_9-2015q3/bin/../lib/gcc/arm-none-eabi/4.9.3/../../../../arm-none-eabi/lib/armv7-m/libc.a(lib_a-mallocr.o)
                0x0000db68                _malloc_r
 .text.memcmp   0x0000e074       0x64 /opt/my1310ARM/toolchain/gcc-arm-none-eabi-4_9-2015q3/bin/../lib/gcc/arm-none-eabi/4.9.3/../../../../arm-none-eabi/lib/armv7-m/libc.a(lib_a-memcmp.o)
                0x0000e074                memcmp
 .text          0x0000e0d8       0xec /opt/my1310ARM/toolchain/gcc-arm-none-eabi-4_9-2015q3/bin/../lib/gcc/arm-none-eabi/4.9.3/../../../../arm-none-eabi/lib/armv7-m/libc.a(lib_a-memcpy.o)
                0x0000e0d8                memcpy
 .text.memmove  0x0000e1c4       0xc8 /opt/my1310ARM/toolchain/gcc-arm-none-eabi-4_9-2015q3/bin/../lib/gcc/arm-none-eabi/4.9.3/../../../../arm-none-eabi/lib/armv7-m/libc.a(lib_a-memmove.o)
                0x0000e1c4                memmove
 .text.memset   0x0000e28c       0x9c /opt/my1310ARM/toolchain/gcc-arm-none-eabi-4_9-2015q3/bin/../lib/gcc/arm-none-eabi/4.9.3/../../../../arm-none-eabi/lib/armv7-m/libc.a(lib_a-memset.o)
                0x0000e28c                memset
 .text.__malloc_lock
                0x0000e328        0x4 /opt/my1310ARM/toolchain/gcc-arm-none-eabi-4_9-2015q3/bin/../lib/gcc/arm-none-eabi/4.9.3/../../../../arm-none-eabi/lib/armv7-m/libc.a(lib_a-mlock.o)
                0x0000e328                __malloc_lock
 .text.__malloc_unlock
                0x0000e32c        0x4 /opt/my1310ARM/toolchain/gcc-arm-none-eabi-4_9-2015q3/bin/../lib/gcc/arm-none-eabi/4.9.3/../../../../arm-none-eabi/lib/armv7-m/libc.a(lib_a-mlock.o)
                0x0000e32c                __malloc_unlock
 .text._sbrk_r  0x0000e330       0x24 /opt/my1310ARM/toolchain/gcc-arm-none-eabi-4_9-2015q3/bin/../lib/gcc/arm-none-eabi/4.9.3/../../../../arm-none-eabi/lib/armv7-m/libc.a(lib_a-sbrkr.o)
                0x0000e330                _sbrk_r
 .text.strlen   0x0000e354       0x5c /opt/my1310ARM/toolchain/gcc-arm-none-eabi-4_9-2015q3/bin/../lib/gcc/arm-none-eabi/4.9.3/../../../../arm-none-eabi/lib/armv7-m/libc.a(lib_a-strlen.o)
                0x0000e354                strlen
 .text._malloc_trim_r
                0x0000e3b0       0x9c /opt/my1310ARM/toolchain/gcc-arm-none-eabi-4_9-2015q3/bin/../lib/gcc/arm-none-eabi/4.9.3/../../../../arm-none-eabi/lib/armv7-m/libc.a(lib_a-freer.o)
                0x0000e3b0                _malloc_trim_r
 .text._free_r  0x0000e44c      0x1b0 /opt/my1310ARM/toolchain/gcc-arm-none-eabi-4_9-2015q3/bin/../lib/gcc/arm-none-eabi/4.9.3/../../../../arm-none-eabi/lib/armv7-m/libc.a(lib_a-freer.o)
                0x0000e44c                _free_r
 .text._sbrk    0x0000e5fc       0x1c /opt/my1310ARM/toolchain/gcc-arm-none-eabi-4_9-2015q3/bin/../lib/gcc/arm-none-eabi/4.9.3/../../../../arm-none-eabi/lib/armv7-m/libnosys.a(sbrk.o)
                0x0000e5fc                _sbrk
 *(SORT(.rodata*))
 .rodata.autostart_processes
                0x0000e618        0x8 nodes-sender.co
                0x0000e618                autostart_processes
 .rodata.str1.4
                0x0000e620       0x77 nodes-sender.co
 *fill*         0x0000e697        0x1 00000000
 .rodata.str1.4
                0x0000e698       0xca contiki-cc13xx.a(task-schedule.o)
 *fill*         0x0000e762        0x2 00000000
 .rodata.str1.4
                0x0000e764       0x8e contiki-cc13xx.a(node_function.o)
 *fill*         0x0000e7f2        0x2 00000000
 .rodata.str1.4
                0x0000e7f4       0xa5 contiki-cc13xx.a(contiki-main.o)
 *fill*         0x0000e899        0x3 00000000
 .rodata        0x0000e89c       0x6c contiki-cc13xx.a(board.o)
 .rodata.str1.4
                0x0000e908       0xe2 contiki-cc13xx.a(node-id.o)
 *fill*         0x0000e9ea        0x2 00000000
 .rodata.mode_prop
                0x0000e9ec        0x8 contiki-cc13xx.a(prop-mode.o)
 .rodata.prop_mode_driver
                0x0000e9f4       0x38 contiki-cc13xx.a(prop-mode.o)
                0x0000e9f4                prop_mode_driver
 .rodata.patchGenfskRfe
                0x0000ea2c      0x6b4 contiki-cc13xx.a(prop-mode.o)
 .rodata.patchImageGenfsk
                0x0000f0e0      0x28c contiki-cc13xx.a(prop-mode.o)
 .rodata.prop_mode_tx_power_431_527
                0x0000f36c       0x30 contiki-cc13xx.a(prop-mode-tx-po)
                0x0000f36c                prop_mode_tx_power_431_527
 .rodata.str1.4
                0x0000f39c       0x8b contiki-cc13xx.a(soc-rtc.o)
 *fill*         0x0000f427        0x1 00000000
 .rodata.str1.4
                0x0000f428       0x1e contiki-cc13xx.a(netconfig.o)
 *fill*         0x0000f446        0x2 00000000
 .rodata.str1.4
                0x0000f448       0x46 contiki-cc13xx.a(rf-core.o)
 *fill*         0x0000f48e        0x2 00000000
 .rodata.str1.4
                0x0000f490       0x1b contiki-cc13xx.a(soc-trng.o)
 *fill*         0x0000f4ab        0x1 00000000
 .rodata.str1.4
                0x0000f4ac       0x3e contiki-cc13xx.a(strformat.o)
                                 0x46 (size before relaxing)
 *fill*         0x0000f4ea        0x2 00000000
 .rodata.buffer.4019
                0x0000f4ec       0x10 contiki-cc13xx.a(strformat.o)
 .rodata.buffer.4028
                0x0000f4fc       0x10 contiki-cc13xx.a(strformat.o)
 .rodata.str1.4
                0x0000f50c        0xf contiki-cc13xx.a(ctimer.o)
 *fill*         0x0000f51b        0x1 00000000
 .rodata.str1.4
                0x0000f51c        0xc contiki-cc13xx.a(etimer.o)
 .rodata.str1.4
                0x0000f528       0x1e contiki-cc13xx.a(serial-line.o)
 *fill*         0x0000f546        0x2 00000000
 .rodata        0x0000f548        0x2 contiki-cc13xx.a(sicslowpan.o)
 *fill*         0x0000f54a        0x2 00000000
 .rodata.ttl_values
                0x0000f54c        0x4 contiki-cc13xx.a(sicslowpan.o)
 .rodata.unc_llconf
                0x0000f550        0x4 contiki-cc13xx.a(sicslowpan.o)
                0x0000f550                unc_llconf
 .rodata.llprefix
                0x0000f554        0x2 contiki-cc13xx.a(sicslowpan.o)
                0x0000f554                llprefix
 *fill*         0x0000f556        0x2 00000000
 .rodata.sicslowpan_driver
                0x0000f558        0xc contiki-cc13xx.a(sicslowpan.o)
                0x0000f558                sicslowpan_driver
 .rodata.unc_ctxconf
                0x0000f564        0x4 contiki-cc13xx.a(sicslowpan.o)
                0x0000f564                unc_ctxconf
 .rodata.unc_mxconf
                0x0000f568        0x4 contiki-cc13xx.a(sicslowpan.o)
                0x0000f568                unc_mxconf
 .rodata.str1.4
                0x0000f56c        0xb contiki-cc13xx.a(sicslowpan.o)
 *fill*         0x0000f577        0x1 00000000
 .rodata.str1.4
                0x0000f578       0x41 contiki-cc13xx.a(uip-debug.o)
 *fill*         0x0000f5b9        0x3 00000000
 .rodata.str1.4
                0x0000f5bc        0xd contiki-cc13xx.a(tcpip.o)
 *fill*         0x0000f5c9        0x3 00000000
 .rodata.linkaddr_null
                0x0000f5cc        0x8 contiki-cc13xx.a(linkaddr.o)
                0x0000f5cc                linkaddr_null
 .rodata.framer_802154
                0x0000f5d4        0xc contiki-cc13xx.a(framer-802154.o)
                0x0000f5d4                framer_802154
 .rodata.str1.4
                0x0000f5e0        0x5 contiki-cc13xx.a(csma.o)
 *fill*         0x0000f5e5        0x3 00000000
 .rodata.csma_driver
                0x0000f5e8       0x1c contiki-cc13xx.a(csma.o)
                0x0000f5e8                csma_driver
 .rodata.contikimac_fcf_driver
                0x0000f604       0x20 contiki-cc13xx.a(contikimac-fcf.)
                0x0000f604                contikimac_fcf_driver
 .rodata.str1.4
                0x0000f624      0x297 contiki-cc13xx.a(contikimac-fcf.)
                                0x29b (size before relaxing)
 *fill*         0x0000f8bb        0x1 00000000
 .rodata.str1.4
                0x0000f8bc        0x8 contiki-cc13xx.a(nullsec.o)
 .rodata.nullsec_driver
                0x0000f8c4       0x10 contiki-cc13xx.a(nullsec.o)
                0x0000f8c4                nullsec_driver
 .rodata.str1.4
                0x0000f8d4       0x62 contiki-cc13xx.a(rnfd.o)
 *fill*         0x0000f936        0x2 00000000
 .rodata.str1.4
                0x0000f938       0x11 contiki-cc13xx.a(auto-sleep.o)
 *fill*         0x0000f949        0x3 00000000
 .rodata.str1.4
                0x0000f94c       0xc1 contiki-cc13xx.a(netsynch.o)
                                 0xc5 (size before relaxing)
 *fill*         0x0000fa0d        0x3 00000000
 .rodata.str1.4
                0x0000fa10       0x8c contiki-cc13xx.a(flashdata.o)
 .rodata.str1.4
                0x0000fa9c        0x4 contiki-cc13xx.a(fcf.o)
 .rodata.fcf_driver
                0x0000faa0       0x10 contiki-cc13xx.a(fcf.o)
                0x0000faa0                fcf_driver
 .rodata.str1.4
                0x0000fab0       0x2b contiki-cc13xx.a(rnfd-icmp6.o)
 *fill*         0x0000fadb        0x1 00000000
 .rodata.str1.4
                0x0000fadc       0x56 contiki-cc13xx.a(wake-node.o)
 *fill*         0x0000fb32        0x2 00000000
 .rodata.str1.4
                0x0000fb34        0x4 /opt/my1310ARM/toolchain/gcc-arm-none-eabi-4_9-2015q3/bin/../lib/gcc/arm-none-eabi/4.9.3/../../../../arm-none-eabi/lib/armv7-m/libc.a(lib_a-impure.o)
                                  0x2 (size before relaxing)
                0x0000fb38                _etext = .

.glue_7         0x0000fb38        0x0
 .glue_7        0x00000000        0x0 linker stubs

.glue_7t        0x0000fb38        0x0
 .glue_7t       0x00000000        0x0 linker stubs

.vfp11_veneer   0x0000fb38        0x0
 .vfp11_veneer  0x00000000        0x0 linker stubs

.v4_bx          0x0000fb38        0x0
 .v4_bx         0x00000000        0x0 linker stubs

.iplt           0x0000fb38        0x0
 .iplt          0x00000000        0x0 obj_cc13xx/startup_gcc.o

.data           0x20000000      0xb7d load address 0x0000fb38
                0x20000000                _data = .
 *(SORT(vtable))
 *(SORT(.data*))
 .data.impure_data
                0x20000000      0x428 /opt/my1310ARM/toolchain/gcc-arm-none-eabi-4_9-2015q3/bin/../lib/gcc/arm-none-eabi/4.9.3/../../../../arm-none-eabi/lib/armv7-m/libc.a(lib_a-impure.o)
 .data.udp_client_process
                0x20000428       0x10 nodes-sender.co
                0x20000428                udp_client_process
 .data.msg_da   0x20000438       0x6e nodes-sender.co
 *fill*         0x200004a6        0x2 
 .data.guard_time
                0x200004a8        0x4 contiki-cc13xx.a(task-schedule.o)
 .data.task_schedule_process
                0x200004ac       0x10 contiki-cc13xx.a(task-schedule.o)
                0x200004ac                task_schedule_process
 .data.srf_module
                0x200004bc       0x14 contiki-cc13xx.a(board.o)
 .data.prop_lpm_module
                0x200004d0       0x14 contiki-cc13xx.a(prop-mode.o)
 .data.tx_power_current
                0x200004e4        0x4 contiki-cc13xx.a(prop-mode.o)
                0x200004e4                tx_power_current
 .data.uart_module
                0x200004e8       0x14 contiki-cc13xx.a(cc26xx-uart.o)
 .data.rf_core_process
                0x200004fc       0x10 contiki-cc13xx.a(rf-core.o)
                0x200004fc                rf_core_process
 .data.rng_module
                0x2000050c       0x14 contiki-cc13xx.a(soc-trng.o)
 .data.soc_trng_process
                0x20000520       0x10 contiki-cc13xx.a(soc-trng.o)
                0x20000520                soc_trng_process
 .data.ctxt     0x20000530        0x8 contiki-cc13xx.a(dbg-printf.o)
 .data.ctimer_process
                0x20000538       0x10 contiki-cc13xx.a(ctimer.o)
                0x20000538                ctimer_process
 .data.etimer_process
                0x20000548       0x10 contiki-cc13xx.a(etimer.o)
                0x20000548                etimer_process
 .data.serial_line_process2
                0x20000558       0x10 contiki-cc13xx.a(serial-line.o)
                0x20000558                serial_line_process2
 .data.defaultroutermemb
                0x20000568        0xc contiki-cc13xx.a(uip-ds6-route.o)
 .data.ds6_neighbors
                0x20000574        0x4 contiki-cc13xx.a(uip-ds6-nbr.o)
                0x20000574                ds6_neighbors
 .data.ds6_neighbors_struct
                0x20000578       0x10 contiki-cc13xx.a(uip-ds6-nbr.o)
 .data.tcpip_process
                0x20000588       0x10 contiki-cc13xx.a(tcpip.o)
                0x20000588                tcpip_process
 .data.rpl_parents
                0x20000598        0x4 contiki-cc13xx.a(rpl-dag.o)
                0x20000598                rpl_parents
 .data.rpl_parents_struct
                0x2000059c       0x10 contiki-cc13xx.a(rpl-dag.o)
 .data.rpl_mrhof
                0x200005ac       0x1c contiki-cc13xx.a(rpl-mrhof.o)
                0x200005ac                rpl_mrhof
 .data.bufmem   0x200005c8        0xc contiki-cc13xx.a(queuebuf.o)
 .data.buframmem
                0x200005d4        0xc contiki-cc13xx.a(queuebuf.o)
 .data.neighbor_addr_mem
                0x200005e0        0xc contiki-cc13xx.a(nbr-table.o)
 .data.metadata_memb
                0x200005ec        0xc contiki-cc13xx.a(csma.o)
 .data.neighbor_memb
                0x200005f8        0xc contiki-cc13xx.a(csma.o)
 .data.packet_memb
                0x20000604        0xc contiki-cc13xx.a(csma.o)
 .data.round_auto_sleep
                0x20000610        0x4 contiki-cc13xx.a(auto-sleep.o)
 .data.netsynch_process
                0x20000614       0x10 contiki-cc13xx.a(netsynch.o)
                0x20000614                netsynch_process
 .data.authority_level
                0x20000624        0x4 contiki-cc13xx.a(netsynch.o)
 .data.smartrf_settings_cmd_prop_rx_adv
                0x20000628       0x30 contiki-cc13xx.a(smartrf-setting)
                0x20000628                smartrf_settings_cmd_prop_rx_adv
 .data.smartrf_settings_cmd_fs
                0x20000658       0x18 contiki-cc13xx.a(smartrf-setting)
                0x20000658                smartrf_settings_cmd_fs
 .data.smartrf_settings_cmd_prop_radio_div_setup
                0x20000670       0x28 contiki-cc13xx.a(smartrf-setting)
                0x20000670                smartrf_settings_cmd_prop_radio_div_setup
 .data.smartrf_settings_cmd_prop_tx_adv
                0x20000698       0x20 contiki-cc13xx.a(smartrf-setting)
                0x20000698                smartrf_settings_cmd_prop_tx_adv
 .data.overrides
                0x200006b8       0x60 contiki-cc13xx.a(smartrf-setting)
 .data.dis_handler
                0x20000718        0xc contiki-cc13xx.a(rpl-icmp6.o)
 .data.dio_handler
                0x20000724        0xc contiki-cc13xx.a(rpl-icmp6.o)
 .data.rnfd_request_handler
                0x20000730        0xc contiki-cc13xx.a(rnfd-icmp6.o)
 .data.rnfd_msg_handler
                0x2000073c        0xc contiki-cc13xx.a(rnfd-icmp6.o)
 .data.wake_node_process
                0x20000748       0x10 contiki-cc13xx.a(wake-node.o)
                0x20000748                wake_node_process
 .data.__malloc_av_
                0x20000758      0x408 /opt/my1310ARM/toolchain/gcc-arm-none-eabi-4_9-2015q3/bin/../lib/gcc/arm-none-eabi/4.9.3/../../../../arm-none-eabi/lib/armv7-m/libc.a(lib_a-mallocr.o)
                0x20000758                __malloc_av_
 .data.__malloc_trim_threshold
                0x20000b60        0x4 /opt/my1310ARM/toolchain/gcc-arm-none-eabi-4_9-2015q3/bin/../lib/gcc/arm-none-eabi/4.9.3/../../../../arm-none-eabi/lib/armv7-m/libc.a(lib_a-mallocr.o)
                0x20000b60                __malloc_trim_threshold
 .data.__malloc_sbrk_base
                0x20000b64        0x4 /opt/my1310ARM/toolchain/gcc-arm-none-eabi-4_9-2015q3/bin/../lib/gcc/arm-none-eabi/4.9.3/../../../../arm-none-eabi/lib/armv7-m/libc.a(lib_a-mallocr.o)
                0x20000b64                __malloc_sbrk_base
 .data._impure_ptr
                0x20000b68        0x4 /opt/my1310ARM/toolchain/gcc-arm-none-eabi-4_9-2015q3/bin/../lib/gcc/arm-none-eabi/4.9.3/../../../../arm-none-eabi/lib/armv7-m/libc.a(lib_a-impure.o)
                0x20000b68                _impure_ptr
 .data.init_net_flag
                0x20000b6c        0x2 contiki-cc13xx.a(netconfig.o)
 .data.netDataPeriod
                0x20000b6e        0x1 contiki-cc13xx.a(node_function.o)
 .data.last_rssi
                0x20000b6f        0x1 contiki-cc13xx.a(prop-mode.o)
 .data.rssi_threshold
                0x20000b70        0x1 contiki-cc13xx.a(prop-mode.o)
 .data.active_flag
                0x20000b71        0x1 contiki-cc13xx.a(netconfig.o)
 .data.rng_ready_event
                0x20000b72        0x1 contiki-cc13xx.a(soc-trng.o)
 .data.app_send_flag
                0x20000b73        0x1 contiki-cc13xx.a(sicslowpan.o)
                0x20000b73                app_send_flag
 .data.rdc_active_channel_check_rate
                0x20000b74        0x1 contiki-cc13xx.a(contikimac-fcf.)
 .data.rnfd_start_flag
                0x20000b75        0x1 contiki-cc13xx.a(rnfd.o)
 .data.fragment_send_max_len
                0x20000b76        0x1 contiki-cc13xx.a(udp-fragment.o)
 .data.unfragment_send_max_len
                0x20000b77        0x1 contiki-cc13xx.a(udp-fragment.o)
 .data.last_seqnum
                0x20000b78        0x1 contiki-cc13xx.a(netsynch.o)
 .data.low_latency_active_second
                0x20000b79        0x1 contiki-cc13xx.a(low-latency.o)
 .data.low_latency_channel_clear_flag
                0x20000b7a        0x1 contiki-cc13xx.a(low-latency.o)
 .data.low_latency_interval
                0x20000b7b        0x1 contiki-cc13xx.a(low-latency.o)
 .data.previous_index
                0x20000b7c        0x1 contiki-cc13xx.a(low-latency.o)
                0x20000b7d                _edata = .

.igot.plt       0x20000b80        0x0 load address 0x000106b5
 .igot.plt      0x00000000        0x0 obj_cc13xx/startup_gcc.o

.ARM.exidx      0x000106b8        0x8
 *(SORT(.ARM.exidx*))
 .ARM.exidx     0x000106b8        0x8 /opt/my1310ARM/toolchain/gcc-arm-none-eabi-4_9-2015q3/bin/../lib/gcc/arm-none-eabi/4.9.3/armv7-m/libgcc.a(_divdi3.o)
 .ARM.exidx     0x000106c0        0x0 /opt/my1310ARM/toolchain/gcc-arm-none-eabi-4_9-2015q3/bin/../lib/gcc/arm-none-eabi/4.9.3/armv7-m/libgcc.a(_udivdi3.o)
                                  0x8 (size before relaxing)

.bss            0x20000b80     0x3100
                0x20000b80                _bss = .
 *(SORT(.bss*))
 .bss.l_cpu.9082
                0x20000b80        0x8 contiki-cc13xx.a(node_function.o)
 .bss.l_transmit.9079
                0x20000b88        0x8 contiki-cc13xx.a(node_function.o)
 .bss.l_receive.9083
                0x20000b90        0x8 contiki-cc13xx.a(node_function.o)
 .bss.l_lpm.9081
                0x20000b98        0x8 contiki-cc13xx.a(node_function.o)
 .bss.l_listen.9080
                0x20000ba0        0x8 contiki-cc13xx.a(node_function.o)
 .bss.count     0x20000ba8        0x8 contiki-cc13xx.a(clock.o)
 .bss.rands_cache
                0x20000bb0       0x20 contiki-cc13xx.a(soc-trng.o)
 .bss.energest_UniCarriages_last
                0x20000bd0        0x8 contiki-cc13xx.a(energest.o)
                0x20000bd0                energest_UniCarriages_last
 .bss.energest_UniCarriages
                0x20000bd8        0x8 contiki-cc13xx.a(energest.o)
                0x20000bd8                energest_UniCarriages
 .bss.server_ipaddr
                0x20000be0       0x10 nodes-sender.co
 .bss.feedback_ct
                0x20000bf0       0x20 nodes-sender.co
 .bss.client_conn_data
                0x20000c10        0x4 nodes-sender.co
 .bss.heart_ts  0x20000c14       0x30 nodes-sender.co
 .bss.data_length
                0x20000c44        0x4 nodes-sender.co
 .bss.client_conn
                0x20000c48        0x4 nodes-sender.co
 .bss.sink_conn
                0x20000c4c        0x4 nodes-sender.co
 .bss.ack_buffer
                0x20000c50       0xff nodes-sender.co
 *fill*         0x20000d4f        0x1 
 .bss.read_data_ts
                0x20000d50       0x30 nodes-sender.co
 .bss.n_id      0x20000d80        0x4 nodes-sender.co
 .bss.ct        0x20000d84       0x20 nodes-sender.co
 .bss.send_ct   0x20000da4       0x20 nodes-sender.co
 .bss.buff.8280
                0x20000dc4       0x1e nodes-sender.co
 *fill*         0x20000de2        0x2 
 .bss.reset_timer
                0x20000de4       0x20 contiki-cc13xx.a(task-schedule.o)
 .bss.task_schedule_list_list
                0x20000e04        0x4 contiki-cc13xx.a(task-schedule.o)
 .bss.ct        0x20000e08       0x20 contiki-cc13xx.a(node_function.o)
 .bss.inited    0x20000e28        0x4 contiki-cc13xx.a(board.o)
 .bss.rx_stats  0x20000e2c        0xc contiki-cc13xx.a(prop-mode.o)
 .bss.rx_data_queue
                0x20000e38        0x8 contiki-cc13xx.a(prop-mode.o)
 .bss.rx_read_entry
                0x20000e40        0x4 contiki-cc13xx.a(prop-mode.o)
 .bss.tx_buf    0x20000e44       0xb6 contiki-cc13xx.a(prop-mode.o)
 *fill*         0x20000efa        0x2 
 .bss.rx_buf    0x20000efc      0x230 contiki-cc13xx.a(prop-mode.o)
 .bss.time_now  0x2000112c        0x3 contiki-cc13xx.a(soc-rtc.o)
 *fill*         0x2000112f        0x1 
 .bss.rtc_second
                0x20001130        0x4 contiki-cc13xx.a(soc-rtc.o)
 .bss.last_isr_time
                0x20001134        0x4 contiki-cc13xx.a(soc-rtc.o)
 .bss.input_handler
                0x20001138        0x4 contiki-cc13xx.a(cc26xx-uart.o)
 .bss.modules_list_list
                0x2000113c        0x4 contiki-cc13xx.a(lpm.o)
 .bss.irq_energest
                0x20001140        0x4 contiki-cc13xx.a(lpm.o)
 .bss.timenow   0x20001144        0x3 contiki-cc13xx.a(netconfig.o)
 *fill*         0x20001147        0x1 
 .bss.cal_offest
                0x20001148        0x4 contiki-cc13xx.a(netconfig.o)
 .bss.cal_interval
                0x2000114c        0x4 contiki-cc13xx.a(netconfig.o)
 .bss.cal_count
                0x20001150        0x4 contiki-cc13xx.a(netconfig.o)
 .bss.schedule_bit
                0x20001154       0x12 contiki-cc13xx.a(netconfig.o)
 *fill*         0x20001166        0x2 
 .bss.add_time  0x20001168        0x4 contiki-cc13xx.a(netconfig.o)
 .bss.last_radio_op
                0x2000116c        0x4 contiki-cc13xx.a(rf-core.o)
 .bss.primary_mode
                0x20001170        0x4 contiki-cc13xx.a(rf-core.o)
 .bss.rat_offset
                0x20001174        0x4 contiki-cc13xx.a(rf-core.o)
                0x20001174                rat_offset
 .bss.notify_cb
                0x20001178        0x4 contiki-cc13xx.a(soc-trng.o)
 .bss.rands_mask
                0x2000117c        0x4 contiki-cc13xx.a(soc-trng.o)
 .bss.ctimer_list_list
                0x20001180        0x4 contiki-cc13xx.a(ctimer.o)
 .bss.timerlist
                0x20001184        0x4 contiki-cc13xx.a(etimer.o)
 .bss.next_expiration
                0x20001188        0x4 contiki-cc13xx.a(etimer.o)
 .bss.receiver.5212
                0x2000118c        0x4 contiki-cc13xx.a(process.o)
 .bss.process_current
                0x20001190        0x4 contiki-cc13xx.a(process.o)
                0x20001190                process_current
 .bss.process_list
                0x20001194        0x4 contiki-cc13xx.a(process.o)
                0x20001194                process_list
 .bss.data.5211
                0x20001198        0x4 contiki-cc13xx.a(process.o)
 .bss.events    0x2000119c      0x180 contiki-cc13xx.a(process.o)
 .bss.p.5213    0x2000131c        0x4 contiki-cc13xx.a(process.o)
 .bss.next_rtimer
                0x20001320        0x4 contiki-cc13xx.a(rtimer.o)
 .bss.rxbuf_data2
                0x20001324       0x80 contiki-cc13xx.a(serial-line.o)
 .bss.t0.5545   0x200013a4        0x4 contiki-cc13xx.a(serial-line.o)
 .bss.ptr.5540  0x200013a8        0x4 contiki-cc13xx.a(serial-line.o)
 .bss.buf.5539  0x200013ac       0x80 contiki-cc13xx.a(serial-line.o)
 .bss.rxbuf2    0x2000142c        0x8 contiki-cc13xx.a(serial-line.o)
 .bss.locmaddr  0x20001434        0x4 contiki-cc13xx.a(uip-ds6.o)
 .bss.locprefix
                0x20001438        0x4 contiki-cc13xx.a(uip-ds6.o)
 .bss.locaddr   0x2000143c        0x4 contiki-cc13xx.a(uip-ds6.o)
 .bss.loc_fipaddr
                0x20001440       0x10 contiki-cc13xx.a(uip-ds6.o)
 .bss.defaultroutermemb_memb_mem
                0x20001450       0x40 contiki-cc13xx.a(uip-ds6-route.o)
 .bss.defaultroutermemb_memb_count
                0x20001490        0x2 contiki-cc13xx.a(uip-ds6-route.o)
 *fill*         0x20001492        0x2 
 .bss.defaultrouterlist_list
                0x20001494        0x4 contiki-cc13xx.a(uip-ds6-route.o)
 .bss.notificationlist_list
                0x20001498        0x4 contiki-cc13xx.a(uip-ds6-route.o)
 .bss._ds6_neighbors_mem
                0x2000149c      0x960 contiki-cc13xx.a(uip-ds6-nbr.o)
 .bss.context   0x20001dfc        0x4 contiki-cc13xx.a(sicslowpan.o)
 .bss.last_rssi
                0x20001e00        0x4 contiki-cc13xx.a(sicslowpan.o)
 .bss.hc06_ptr  0x20001e04        0x4 contiki-cc13xx.a(sicslowpan.o)
 .bss.addr_contexts
                0x20001e08        0xa contiki-cc13xx.a(sicslowpan.o)
 *fill*         0x20001e12        0x2 
 .bss.packetbuf_ptr
                0x20001e14        0x4 contiki-cc13xx.a(sicslowpan.o)
 .bss.last_tx_status
                0x20001e18        0x4 contiki-cc13xx.a(sicslowpan.o)
 .bss.packetbuf_payload_len
                0x20001e1c        0x4 contiki-cc13xx.a(sicslowpan.o)
 .bss.callback  0x20001e20        0x4 contiki-cc13xx.a(sicslowpan.o)
 .bss.periodic  0x20001e24       0x10 contiki-cc13xx.a(tcpip.o)
 .bss.outputfunc
                0x20001e34        0x4 contiki-cc13xx.a(tcpip.o)
 .bss._rpl_parents_mem
                0x20001e38      0x3c0 contiki-cc13xx.a(rpl-dag.o)
 .bss.periodic_timer
                0x200021f8       0x20 contiki-cc13xx.a(rpl-timers.o)
 .bss.powerQualGlobals
                0x20002218        0x8 contiki-cc13xx.a(sys_ctrl.o)
 .bss.received_orpl_bitmap_seqnos
                0x20002220       0x18 contiki-cc13xx.a(orpl-bitmap.o)
 .bss.buframmem_memb_count
                0x20002238        0x8 contiki-cc13xx.a(queuebuf.o)
 .bss.bufmem_memb_mem
                0x20002240       0x20 contiki-cc13xx.a(queuebuf.o)
 .bss.buframmem_memb_mem
                0x20002260      0x580 contiki-cc13xx.a(queuebuf.o)
 .bss.bufmem_memb_count
                0x200027e0        0x8 contiki-cc13xx.a(queuebuf.o)
 .bss.neighbor_addr_mem_memb_count
                0x200027e8       0x3c contiki-cc13xx.a(nbr-table.o)
 .bss.locked_map
                0x20002824       0x3c contiki-cc13xx.a(nbr-table.o)
 .bss.nbr_table_keys_list
                0x20002860        0x4 contiki-cc13xx.a(nbr-table.o)
 .bss.neighbor_addr_mem_memb_mem
                0x20002864      0x2d0 contiki-cc13xx.a(nbr-table.o)
 .bss.used_map  0x20002b34       0x3c contiki-cc13xx.a(nbr-table.o)
 .bss.all_tables
                0x20002b70       0x20 contiki-cc13xx.a(nbr-table.o)
 .bss.num_tables
                0x20002b90        0x4 contiki-cc13xx.a(nbr-table.o)
 .bss.packetbufptr
                0x20002b94        0x4 contiki-cc13xx.a(packetbuf.o)
 .bss.packetbuf_aligned
                0x20002b98       0xb0 contiki-cc13xx.a(packetbuf.o)
 .bss.metadata_memb_memb_count
                0x20002c48        0x8 contiki-cc13xx.a(csma.o)
 .bss.neighbor_memb_memb_count
                0x20002c50        0x2 contiki-cc13xx.a(csma.o)
 *fill*         0x20002c52        0x2 
 .bss.packet_memb_memb_count
                0x20002c54        0x8 contiki-cc13xx.a(csma.o)
 .bss.metadata_memb_memb_mem
                0x20002c5c       0x60 contiki-cc13xx.a(csma.o)
 .bss.neighbor_list_list
                0x20002cbc        0x4 contiki-cc13xx.a(csma.o)
 .bss.packet_memb_memb_mem
                0x20002cc0       0x60 contiki-cc13xx.a(csma.o)
 .bss.neighbor_memb_memb_mem
                0x20002d20       0x70 contiki-cc13xx.a(csma.o)
 .bss.cycle_start
                0x20002d90        0x4 contiki-cc13xx.a(contikimac-fcf.)
 .bss.we_are_receiving_burst
                0x20002d94        0x4 contiki-cc13xx.a(contikimac-fcf.)
 .bss.rt        0x20002d98        0xc contiki-cc13xx.a(contikimac-fcf.)
 .bss.start.10017
                0x20002da4        0x4 contiki-cc13xx.a(contikimac-fcf.)
 .bss.old_strobe_time.10059
                0x20002da8        0x4 contiki-cc13xx.a(contikimac-fcf.)
 .bss.CYCLE_TIME
                0x20002dac        0x4 contiki-cc13xx.a(contikimac-fcf.)
 .bss.STROBE_TIME
                0x20002db0        0x4 contiki-cc13xx.a(contikimac-fcf.)
 .bss.pt        0x20002db4        0x2 contiki-cc13xx.a(contikimac-fcf.)
 *fill*         0x20002db6        0x2 
 .bss.ct.10105  0x20002db8       0x20 contiki-cc13xx.a(contikimac-fcf.)
 .bss.rnfd_root_ct
                0x20002dd8       0x20 contiki-cc13xx.a(rnfd-root.o)
 .bss.rnfd_info
                0x20002df8       0x38 contiki-cc13xx.a(rnfd-root.o)
 .bss.rnfd_ct   0x20002e30       0x20 contiki-cc13xx.a(rnfd.o)
 .bss.rnfd_info_array
                0x20002e50       0xa8 contiki-cc13xx.a(rnfd.o)
 .bss.udp_frag_data_info
                0x20002ef8       0xa8 contiki-cc13xx.a(udp-fragment.o)
 .bss.udp_frag_send_timer
                0x20002fa0       0x20 contiki-cc13xx.a(udp-fragment.o)
 .bss.auto_sleep_ct
                0x20002fc0       0x20 contiki-cc13xx.a(auto-sleep.o)
 .bss.concentrator_ipv6addr
                0x20002fe0       0x10 contiki-cc13xx.a(netsynch.o)
 .bss.send_netsync_ct
                0x20002ff0       0x20 contiki-cc13xx.a(netsynch.o)
 .bss.netsyn_offset
                0x20003010        0x4 contiki-cc13xx.a(netsynch.o)
 .bss.back_ct.8168
                0x20003014       0x20 contiki-cc13xx.a(netsynch.o)
 .bss.schedule_bitmap_new
                0x20003034       0x12 contiki-cc13xx.a(netsynch.o)
 *fill*         0x20003046        0x2 
 .bss.schedule_bitmap
                0x20003048       0x12 contiki-cc13xx.a(netsynch.o)
 *fill*         0x2000305a        0x2 
 .bss.response  0x2000305c        0x4 contiki-cc13xx.a(netsynch.o)
 .bss.periodic  0x20003060       0x10 contiki-cc13xx.a(netsynch.o)
 .bss.mcast_conn
                0x20003070        0x4 contiki-cc13xx.a(netsynch.o)
 .bss.rev_msg   0x20003074       0x1a contiki-cc13xx.a(netsynch.o)
 *fill*         0x2000308e        0x2 
 .bss.common_request_ct
                0x20003090       0x20 contiki-cc13xx.a(netsynch.o)
 .bss.netsync_cal_info
                0x200030b0       0x14 contiki-cc13xx.a(netsync-auto-ca)
 .bss.new_netsyc_offset.5835
                0x200030c4        0x4 contiki-cc13xx.a(netsync-auto-ca)
 .bss.new_cal_interval.5834
                0x200030c8        0x4 contiki-cc13xx.a(netsync-auto-ca)
 .bss.transmit_ct
                0x200030cc       0x20 contiki-cc13xx.a(wake-common.o)
 .bss.wake_info
                0x200030ec       0x21 contiki-cc13xx.a(wake-common.o)
 *fill*         0x2000310d        0x3 
 .bss.consumers_list_list
                0x20003110        0x4 contiki-cc13xx.a(aux-ctrl.o)
 .bss.seq_array
                0x20003114       0x10 contiki-cc13xx.a(fcf.o)
 .bss.input_handler_list_list
                0x20003124        0x4 contiki-cc13xx.a(uip-icmp6.o)
 .bss.ct        0x20003128       0x20 contiki-cc13xx.a(rpl-icmp6.o)
 .bss.received_seqnos
                0x20003148       0x90 contiki-cc13xx.a(mac-sequence.o)
 .bss.mcast_conn
                0x200031d8        0x4 contiki-cc13xx.a(wake-node.o)
 .bss.__malloc_max_total_mem
                0x200031dc        0x4 /opt/my1310ARM/toolchain/gcc-arm-none-eabi-4_9-2015q3/bin/../lib/gcc/arm-none-eabi/4.9.3/../../../../arm-none-eabi/lib/armv7-m/libc.a(lib_a-mallocr.o)
                0x200031dc                __malloc_max_total_mem
 .bss.__malloc_max_sbrked_mem
                0x200031e0        0x4 /opt/my1310ARM/toolchain/gcc-arm-none-eabi-4_9-2015q3/bin/../lib/gcc/arm-none-eabi/4.9.3/../../../../arm-none-eabi/lib/armv7-m/libc.a(lib_a-mallocr.o)
                0x200031e0                __malloc_max_sbrked_mem
 .bss.__malloc_top_pad
                0x200031e4        0x4 /opt/my1310ARM/toolchain/gcc-arm-none-eabi-4_9-2015q3/bin/../lib/gcc/arm-none-eabi/4.9.3/../../../../arm-none-eabi/lib/armv7-m/libc.a(lib_a-mallocr.o)
                0x200031e4                __malloc_top_pad
 .bss.__malloc_current_mallinfo
                0x200031e8       0x28 /opt/my1310ARM/toolchain/gcc-arm-none-eabi-4_9-2015q3/bin/../lib/gcc/arm-none-eabi/4.9.3/../../../../arm-none-eabi/lib/armv7-m/libc.a(lib_a-mallocr.o)
                0x200031e8                __malloc_current_mallinfo
 .bss.heap_end.4079
                0x20003210        0x4 /opt/my1310ARM/toolchain/gcc-arm-none-eabi-4_9-2015q3/bin/../lib/gcc/arm-none-eabi/4.9.3/../../../../arm-none-eabi/lib/armv7-m/libnosys.a(sbrk.o)
 .bss.node_id   0x20003214        0x2 contiki-cc13xx.a(node-id.o)
                0x20003214                node_id
 .bss.days      0x20003216        0x2 contiki-cc13xx.a(netconfig.o)
 .bss.lastport  0x20003218        0x2 contiki-cc13xx.a(uip6.o)
 .bss.duplicate_count.8057
                0x2000321a        0x2 contiki-cc13xx.a(tcpip.o)
 .bss.next_dis  0x2000321c        0x2 contiki-cc13xx.a(rpl-timers.o)
 .bss.current_seqno
                0x2000321e        0x2 contiki-cc13xx.a(orpl-bitmap.o)
 .bss.buflen    0x20003220        0x2 contiki-cc13xx.a(packetbuf.o)
 .bss.bufptr    0x20003222        0x2 contiki-cc13xx.a(packetbuf.o)
 .bss.seqno.6263
                0x20003224        0x2 contiki-cc13xx.a(csma.o)
 .bss.receive_count
                0x20003226        0x2 contiki-cc13xx.a(fcf.o)
 .bss.last_seq  0x20003228        0x2 contiki-cc13xx.a(fcf.o)
 .bss.wake_type
                0x2000322a        0x2 contiki-cc13xx.a(wake-dev.o)
 .bss.global_type
                0x2000322c        0x1 nodes-sender.co
 .bss.to_be_return
                0x2000322d        0x1 nodes-sender.co
 .bss.appdata_length
                0x2000322e        0x1 nodes-sender.co
 .bss.initialized
                0x2000322f        0x1 contiki-cc13xx.a(task-schedule.o)
 .bss.c         0x20003230        0x1 contiki-cc13xx.a(board.o)
 .bss.low_latency_flag
                0x20003231        0x1 contiki-cc13xx.a(soc-rtc.o)
 .bss.active_flag_one_second_before
                0x20003232        0x1 contiki-cc13xx.a(soc-rtc.o)
 .bss.rat_offset_known
                0x20003233        0x1 contiki-cc13xx.a(rf-core.o)
 .bss.ble_mode_on
                0x20003234        0x1 contiki-cc13xx.a(rf-ble.o)
 .bss.initialized
                0x20003235        0x1 contiki-cc13xx.a(ctimer.o)
 .bss.fevent    0x20003236        0x1 contiki-cc13xx.a(process.o)
 .bss.snum.5228
                0x20003237        0x1 contiki-cc13xx.a(process.o)
 .bss.nevents   0x20003238        0x1 contiki-cc13xx.a(process.o)
 .bss.poll_requested
                0x20003239        0x1 contiki-cc13xx.a(process.o)
 .bss.lastevent
                0x2000323a        0x1 contiki-cc13xx.a(process.o)
 .bss.ev.5210   0x2000323b        0x1 contiki-cc13xx.a(process.o)
 .bss.last_lowlatency_fla
                0x2000323c        0x1 contiki-cc13xx.a(rtimer.o)
 .bss.last_active_fla
                0x2000323d        0x1 contiki-cc13xx.a(rtimer.o)
 .bss.overflow.5533
                0x2000323e        0x1 contiki-cc13xx.a(serial-line.o)
 .bss.leds      0x2000323f        0x1 contiki-cc13xx.a(leds.o)
 .bss.uip_ext_len
                0x20003240        0x1 contiki-cc13xx.a(uip6.o)
                0x20003240                uip_ext_len
 .bss.uip_ext_bitmap
                0x20003241        0x1 contiki-cc13xx.a(uip6.o)
                0x20003241                uip_ext_bitmap
 .bss.uip_ext_opt_offset
                0x20003242        0x1 contiki-cc13xx.a(uip6.o)
                0x20003242                uip_ext_opt_offset
 .bss.c         0x20003243        0x1 contiki-cc13xx.a(uip6.o)
 .bss.rnfd_noack_count.7153
                0x20003244        0x1 contiki-cc13xx.a(uip-ds6-nbr.o)
 .bss.uncomp_hdr_len
                0x20003245        0x1 contiki-cc13xx.a(sicslowpan.o)
 .bss.packetbuf_hdr_len
                0x20003246        0x1 contiki-cc13xx.a(sicslowpan.o)
 .bss.dio_send_ok
                0x20003247        0x1 contiki-cc13xx.a(rpl-timers.o)
 .bss.init_seqno_flag
                0x20003248        0x1 contiki-cc13xx.a(orpl-bitmap.o)
 .bss.hdrptr    0x20003249        0x1 contiki-cc13xx.a(packetbuf.o)
 .bss.mac_dsn   0x2000324a        0x1 contiki-cc13xx.a(framer-802154.o)
 .bss.initialized
                0x2000324b        0x1 contiki-cc13xx.a(framer-802154.o)
 .bss.initialized.6262
                0x2000324c        0x1 contiki-cc13xx.a(csma.o)
 .bss.radio_is_on
                0x2000324d        0x1 contiki-cc13xx.a(contikimac-fcf.)
 .bss.packet_seen.10011
                0x2000324e        0x1 contiki-cc13xx.a(contikimac-fcf.)
 .bss.we_are_sending
                0x2000324f        0x1 contiki-cc13xx.a(contikimac-fcf.)
 .bss.contikimac_keep_radio_on
                0x20003250        0x1 contiki-cc13xx.a(contikimac-fcf.)
 .bss.silence_periods.10018
                0x20003251        0x1 contiki-cc13xx.a(contikimac-fcf.)
 .bss.contikimac_is_on
                0x20003252        0x1 contiki-cc13xx.a(contikimac-fcf.)
 .bss.periods.10019
                0x20003253        0x1 contiki-cc13xx.a(contikimac-fcf.)
 .bss.count.10012
                0x20003254        0x1 contiki-cc13xx.a(contikimac-fcf.)
 .bss.low_latency_flag
                0x20003255        0x1 contiki-cc13xx.a(contikimac-fcf.)
 .bss.rnfd_seqnum
                0x20003256        0x1 contiki-cc13xx.a(rnfd-root.o)
 .bss.init_seqnum_flag
                0x20003257        0x1 contiki-cc13xx.a(rnfd-root.o)
 .bss.root_immediate_children_flag
                0x20003258        0x1 contiki-cc13xx.a(rnfd.o)
 .bss.rnfd_offline_nodag
                0x20003259        0x1 contiki-cc13xx.a(rnfd.o)
 .bss.next_frag_seqno
                0x2000325a        0x1 contiki-cc13xx.a(udp-fragment.o)
 .bss.force_auto_sleep
                0x2000325b        0x1 contiki-cc13xx.a(auto-sleep.o)
 .bss.count.8192
                0x2000325c        0x1 contiki-cc13xx.a(netsynch.o)
 .bss.wake_send_flag
                0x2000325d        0x1 contiki-cc13xx.a(wake-common.o)
 .bss.low_latency_active_time
                0x2000325e        0x1 contiki-cc13xx.a(low-latency.o)
 .bss.low_latency_falg
                0x2000325f        0x1 contiki-cc13xx.a(low-latency.o)
 .bss.low_latency_one_second_before
                0x20003260        0x1 contiki-cc13xx.a(low-latency.o)
 .bss.index_change_flag
                0x20003261        0x1 contiki-cc13xx.a(low-latency.o)
 .bss.next_del_p
                0x20003262        0x1 contiki-cc13xx.a(fcf.o)
 .bss.wake_seq  0x20003263        0x1 contiki-cc13xx.a(wake-dev.o)
 *(SORT(COMMON))
 *fill*         0x20003264        0x4 
 COMMON         0x20003268       0xc8 contiki-cc13xx.a(energest.o)
                0x20003268                energest_total_time
                0x200032e0                energest_total_count
                0x200032e4                energest_current_mode
                0x200032f4                energest_current_time
 COMMON         0x20003330       0x26 nodes-sender.co
                0x20003330                normal_byte
                0x20003332                uploadFlag
                0x20003333                channel_byte
                0x20003334                restart_count
                0x20003338                cmd_read_meter
 *fill*         0x20003356        0x2 
 COMMON         0x20003358      0x174 contiki-cc13xx.a(uip-ds6.o)
                0x20003358                uip_ds6_timer_ra
                0x20003360                uip_ds6_if
                0x20003458                uip_ds6_netif_addr_list_offset
                0x20003459                uip_ds6_addr_size
                0x2000345c                uip_ds6_prefix_list
                0x200034bc                uip_ds6_timer_periodic
 COMMON         0x200034cc      0x670 contiki-cc13xx.a(uip6.o)
                0x200034cc                uip_len
                0x200034d0                uip_sappdata
                0x200034d4                uip_lladdr
                0x200034dc                uip_aligned_buf
                0x200039dc                uip_flags
                0x200039e0                uip_next_hdr
                0x200039e4                uip_udp_conn
                0x200039e8                uip_appdata
                0x200039ec                uip_conn
                0x200039f0                uip_icmp6_conns
                0x200039f8                uip_slen
                0x200039fc                uip_udp_conns
 COMMON         0x20003b3c       0xf4 contiki-cc13xx.a(rpl-dag.o)
                0x20003b3c                default_instance
                0x20003b40                instance_table
 COMMON         0x20003c30        0xe contiki-cc13xx.a(orpl-bitmap.o)
                0x20003c30                bitmap_receive_info
                0x20003c38                bitmap_send_info
 *fill*         0x20003c3e        0x2 
 COMMON         0x20003c40       0x2e contiki-cc13xx.a(packetbuf.o)
                0x20003c40                packetbuf_addrs
                0x20003c50                packetbuf_attrs
 *fill*         0x20003c6e        0x2 
 COMMON         0x20003c70        0x8 contiki-cc13xx.a(linkaddr.o)
                0x20003c70                linkaddr_node_addr
 COMMON         0x20003c78        0x4 /opt/my1310ARM/toolchain/gcc-arm-none-eabi-4_9-2015q3/bin/../lib/gcc/arm-none-eabi/4.9.3/../../../../arm-none-eabi/lib/armv7-m/libc.a(lib_a-reent.o)
                0x20003c78                errno
 COMMON         0x20003c7c        0x2 contiki-cc13xx.a(serial-line.o)
                0x20003c7c                serial_line_event_message2
                0x20003c7d                serial_line_event_message
 COMMON         0x20003c7e        0x2 contiki-cc13xx.a(tcpip.o)
                0x20003c7e                tcpip_event
                0x20003c7f                tcpip_icmp6_event
                0x20003c80                _ebss = .
                0x20003c80                _end = .
                0x20003c80                PROVIDE (end, _ebss)
                0x20003c80                PROVIDE (__HEAP_START, _end)

.flash_datacfg
 *(SORT(.flash_datacfg))

.ccfg           0x0001ffa8       0x58
 *(SORT(.ccfg))
 .ccfg          0x0001ffa8       0x58 obj_cc13xx/ccfg.o
                0x0001ffa8                __ccfg

.rel.dyn        0x00020000        0x0
 .rel.iplt      0x00000000        0x0 obj_cc13xx/startup_gcc.o

._user_heap_stack
                0x20003c80      0x100
                0x20003c80                . = ALIGN (0x4)
                0x20003c80                . = (. + _Min_Heap_Size)
                0x20003d80                . = (. + _Min_Stack_Size)
 *fill*         0x20003c80      0x100 
                0x20003d80                . = ALIGN (0x4)

.gpram
OUTPUT(nodes-sender.elf elf32-littlearm)

.comment        0x00000000       0x70
 .comment       0x00000000       0x70 obj_cc13xx/fault-handlers.o
                                 0x71 (size before relaxing)
 .comment       0x00000000       0x71 obj_cc13xx/ccfg.o
 .comment       0x00000000       0x71 obj_cc13xx/startup_gcc.o
 .comment       0x00000000       0x71 nodes-sender.co
 .comment       0x00000000       0x71 contiki-cc13xx.a(task-schedule.o)
 .comment       0x00000000       0x71 contiki-cc13xx.a(node_function.o)
 .comment       0x00000000       0x71 contiki-cc13xx.a(contiki-main.o)
 .comment       0x00000000       0x71 contiki-cc13xx.a(board.o)
 .comment       0x00000000       0x71 contiki-cc13xx.a(node-id.o)
 .comment       0x00000000       0x71 contiki-cc13xx.a(bat-voltage.o)
 .comment       0x00000000       0x71 contiki-cc13xx.a(prop-mode.o)
 .comment       0x00000000       0x71 contiki-cc13xx.a(prop-mode-tx-po)
 .comment       0x00000000       0x71 contiki-cc13xx.a(clock.o)
 .comment       0x00000000       0x71 contiki-cc13xx.a(rtimer-arch.o)
 .comment       0x00000000       0x71 contiki-cc13xx.a(soc-rtc.o)
 .comment       0x00000000       0x71 contiki-cc13xx.a(contiki-watchdo)
 .comment       0x00000000       0x71 contiki-cc13xx.a(putchar.o)
 .comment       0x00000000       0x71 contiki-cc13xx.a(ieee-addr.o)
 .comment       0x00000000       0x71 contiki-cc13xx.a(cc26xx-uart.o)
 .comment       0x00000000       0x71 contiki-cc13xx.a(lpm.o)
 .comment       0x00000000       0x71 contiki-cc13xx.a(oscillators.o)
 .comment       0x00000000       0x71 contiki-cc13xx.a(netconfig.o)
 .comment       0x00000000       0x71 contiki-cc13xx.a(rf-core.o)
 .comment       0x00000000       0x71 contiki-cc13xx.a(rf-ble.o)
 .comment       0x00000000       0x71 contiki-cc13xx.a(random.o)
 .comment       0x00000000       0x71 contiki-cc13xx.a(soc-trng.o)
 .comment       0x00000000       0x71 contiki-cc13xx.a(dbg-printf.o)
 .comment       0x00000000       0x71 contiki-cc13xx.a(strformat.o)
 .comment       0x00000000       0x71 contiki-cc13xx.a(autostart.o)
 .comment       0x00000000       0x71 contiki-cc13xx.a(ctimer.o)
 .comment       0x00000000       0x71 contiki-cc13xx.a(energest.o)
 .comment       0x00000000       0x71 contiki-cc13xx.a(etimer.o)
 .comment       0x00000000       0x71 contiki-cc13xx.a(process.o)
 .comment       0x00000000       0x71 contiki-cc13xx.a(rtimer.o)
 .comment       0x00000000       0x71 contiki-cc13xx.a(timer.o)
 .comment       0x00000000       0x71 contiki-cc13xx.a(serial-line.o)
 .comment       0x00000000       0x71 contiki-cc13xx.a(leds.o)
 .comment       0x00000000       0x71 contiki-cc13xx.a(list.o)
 .comment       0x00000000       0x71 contiki-cc13xx.a(ringbuf.o)
 .comment       0x00000000       0x71 contiki-cc13xx.a(uip-ds6.o)
 .comment       0x00000000       0x71 contiki-cc13xx.a(uip-ds6-route.o)
 .comment       0x00000000       0x71 contiki-cc13xx.a(uip6.o)
 .comment       0x00000000       0x71 contiki-cc13xx.a(uip-ds6-nbr.o)
 .comment       0x00000000       0x71 contiki-cc13xx.a(uip-nd6.o)
 .comment       0x00000000       0x71 contiki-cc13xx.a(sicslowpan.o)
 .comment       0x00000000       0x71 contiki-cc13xx.a(uip-debug.o)
 .comment       0x00000000       0x71 contiki-cc13xx.a(uip-udp-packet.)
 .comment       0x00000000       0x71 contiki-cc13xx.a(tcpip.o)
 .comment       0x00000000       0x71 contiki-cc13xx.a(rpl-dag.o)
 .comment       0x00000000       0x71 contiki-cc13xx.a(rpl-timers.o)
 .comment       0x00000000       0x71 contiki-cc13xx.a(rpl.o)
 .comment       0x00000000       0x71 contiki-cc13xx.a(rpl-mrhof.o)
 .comment       0x00000000       0x71 contiki-cc13xx.a(setup.o)
 .comment       0x00000000       0x71 contiki-cc13xx.a(osc.o)
 .comment       0x00000000       0x71 contiki-cc13xx.a(setup_rom.o)
 .comment       0x00000000       0x71 contiki-cc13xx.a(cpu.o)
 .comment       0x00000000       0x71 contiki-cc13xx.a(ddi.o)
 .comment       0x00000000       0x71 contiki-cc13xx.a(rfc.o)
 .comment       0x00000000       0x71 contiki-cc13xx.a(chipinfo.o)
 .comment       0x00000000       0x71 contiki-cc13xx.a(adi.o)
 .comment       0x00000000       0x71 contiki-cc13xx.a(sys_ctrl.o)
 .comment       0x00000000       0x71 contiki-cc13xx.a(pwr_ctrl.o)
 .comment       0x00000000       0x71 contiki-cc13xx.a(trng.o)
 .comment       0x00000000       0x71 contiki-cc13xx.a(aon_rtc.o)
 .comment       0x00000000       0x71 contiki-cc13xx.a(aon_batmon.o)
 .comment       0x00000000       0x71 contiki-cc13xx.a(orpl-bitmap.o)
 .comment       0x00000000       0x71 contiki-cc13xx.a(queuebuf.o)
 .comment       0x00000000       0x71 contiki-cc13xx.a(nbr-table.o)
 .comment       0x00000000       0x71 contiki-cc13xx.a(packetbuf.o)
 .comment       0x00000000       0x71 contiki-cc13xx.a(netstack.o)
 .comment       0x00000000       0x71 contiki-cc13xx.a(linkaddr.o)
 .comment       0x00000000       0x71 contiki-cc13xx.a(framer-802154.o)
 .comment       0x00000000       0x71 contiki-cc13xx.a(csma.o)
 .comment       0x00000000       0x71 contiki-cc13xx.a(frame802154.o)
 .comment       0x00000000       0x71 contiki-cc13xx.a(mac.o)
 .comment       0x00000000       0x71 contiki-cc13xx.a(contikimac-fcf.)
 .comment       0x00000000       0x71 contiki-cc13xx.a(nullsec.o)
 .comment       0x00000000       0x71 contiki-cc13xx.a(rnfd-root.o)
 .comment       0x00000000       0x71 contiki-cc13xx.a(rnfd.o)
 .comment       0x00000000       0x71 contiki-cc13xx.a(udp-fragment.o)
 .comment       0x00000000       0x71 contiki-cc13xx.a(auto-sleep.o)
 .comment       0x00000000       0x71 contiki-cc13xx.a(netsynch.o)
 .comment       0x00000000       0x71 contiki-cc13xx.a(netsync-auto-ca)
 .comment       0x00000000       0x71 contiki-cc13xx.a(wake-common.o)
 .comment       0x00000000       0x71 contiki-cc13xx.a(low-latency.o)
 .comment       0x00000000       0x71 contiki-cc13xx.a(flashdata.o)
 .comment       0x00000000       0x71 contiki-cc13xx.a(smartrf-setting)
 .comment       0x00000000       0x71 contiki-cc13xx.a(aux-ctrl.o)
 .comment       0x00000000       0x71 contiki-cc13xx.a(fcf.o)
 .comment       0x00000000       0x71 contiki-cc13xx.a(stimer.o)
 .comment       0x00000000       0x71 contiki-cc13xx.a(memb.o)
 .comment       0x00000000       0x71 contiki-cc13xx.a(uip-icmp6.o)
 .comment       0x00000000       0x71 contiki-cc13xx.a(rpl-icmp6.o)
 .comment       0x00000000       0x71 contiki-cc13xx.a(flash.o)
 .comment       0x00000000       0x71 contiki-cc13xx.a(vims.o)
 .comment       0x00000000       0x71 contiki-cc13xx.a(mac-sequence.o)
 .comment       0x00000000       0x71 contiki-cc13xx.a(rnfd-icmp6.o)
 .comment       0x00000000       0x71 contiki-cc13xx.a(wake-dev.o)
 .comment       0x00000000       0x71 contiki-cc13xx.a(wake-node.o)

.ARM.attributes
                0x00000000       0x31
 .ARM.attributes
                0x00000000       0x33 obj_cc13xx/fault-handlers.o
 .ARM.attributes
                0x00000033       0x33 obj_cc13xx/ccfg.o
 .ARM.attributes
                0x00000066       0x33 obj_cc13xx/startup_gcc.o
 .ARM.attributes
                0x00000099       0x33 nodes-sender.co
 .ARM.attributes
                0x000000cc       0x33 contiki-cc13xx.a(task-schedule.o)
 .ARM.attributes
                0x000000ff       0x33 contiki-cc13xx.a(node_function.o)
 .ARM.attributes
                0x00000132       0x33 contiki-cc13xx.a(contiki-main.o)
 .ARM.attributes
                0x00000165       0x33 contiki-cc13xx.a(board.o)
 .ARM.attributes
                0x00000198       0x33 contiki-cc13xx.a(node-id.o)
 .ARM.attributes
                0x000001cb       0x33 contiki-cc13xx.a(bat-voltage.o)
 .ARM.attributes
                0x000001fe       0x33 contiki-cc13xx.a(prop-mode.o)
 .ARM.attributes
                0x00000231       0x33 contiki-cc13xx.a(prop-mode-tx-po)
 .ARM.attributes
                0x00000264       0x33 contiki-cc13xx.a(clock.o)
 .ARM.attributes
                0x00000297       0x33 contiki-cc13xx.a(rtimer-arch.o)
 .ARM.attributes
                0x000002ca       0x33 contiki-cc13xx.a(soc-rtc.o)
 .ARM.attributes
                0x000002fd       0x33 contiki-cc13xx.a(contiki-watchdo)
 .ARM.attributes
                0x00000330       0x33 contiki-cc13xx.a(putchar.o)
 .ARM.attributes
                0x00000363       0x33 contiki-cc13xx.a(ieee-addr.o)
 .ARM.attributes
                0x00000396       0x33 contiki-cc13xx.a(cc26xx-uart.o)
 .ARM.attributes
                0x000003c9       0x33 contiki-cc13xx.a(lpm.o)
 .ARM.attributes
                0x000003fc       0x33 contiki-cc13xx.a(oscillators.o)
 .ARM.attributes
                0x0000042f       0x33 contiki-cc13xx.a(netconfig.o)
 .ARM.attributes
                0x00000462       0x33 contiki-cc13xx.a(rf-core.o)
 .ARM.attributes
                0x00000495       0x33 contiki-cc13xx.a(rf-ble.o)
 .ARM.attributes
                0x000004c8       0x33 contiki-cc13xx.a(random.o)
 .ARM.attributes
                0x000004fb       0x33 contiki-cc13xx.a(soc-trng.o)
 .ARM.attributes
                0x0000052e       0x33 contiki-cc13xx.a(dbg-printf.o)
 .ARM.attributes
                0x00000561       0x33 contiki-cc13xx.a(strformat.o)
 .ARM.attributes
                0x00000594       0x33 contiki-cc13xx.a(autostart.o)
 .ARM.attributes
                0x000005c7       0x33 contiki-cc13xx.a(ctimer.o)
 .ARM.attributes
                0x000005fa       0x33 contiki-cc13xx.a(energest.o)
 .ARM.attributes
                0x0000062d       0x33 contiki-cc13xx.a(etimer.o)
 .ARM.attributes
                0x00000660       0x33 contiki-cc13xx.a(process.o)
 .ARM.attributes
                0x00000693       0x33 contiki-cc13xx.a(rtimer.o)
 .ARM.attributes
                0x000006c6       0x33 contiki-cc13xx.a(timer.o)
 .ARM.attributes
                0x000006f9       0x33 contiki-cc13xx.a(serial-line.o)
 .ARM.attributes
                0x0000072c       0x33 contiki-cc13xx.a(leds.o)
 .ARM.attributes
                0x0000075f       0x33 contiki-cc13xx.a(list.o)
 .ARM.attributes
                0x00000792       0x33 contiki-cc13xx.a(ringbuf.o)
 .ARM.attributes
                0x000007c5       0x33 contiki-cc13xx.a(uip-ds6.o)
 .ARM.attributes
                0x000007f8       0x33 contiki-cc13xx.a(uip-ds6-route.o)
 .ARM.attributes
                0x0000082b       0x33 contiki-cc13xx.a(uip6.o)
 .ARM.attributes
                0x0000085e       0x33 contiki-cc13xx.a(uip-ds6-nbr.o)
 .ARM.attributes
                0x00000891       0x33 contiki-cc13xx.a(uip-nd6.o)
 .ARM.attributes
                0x000008c4       0x33 contiki-cc13xx.a(sicslowpan.o)
 .ARM.attributes
                0x000008f7       0x33 contiki-cc13xx.a(uip-debug.o)
 .ARM.attributes
                0x0000092a       0x33 contiki-cc13xx.a(uip-udp-packet.)
 .ARM.attributes
                0x0000095d       0x33 contiki-cc13xx.a(tcpip.o)
 .ARM.attributes
                0x00000990       0x33 contiki-cc13xx.a(rpl-dag.o)
 .ARM.attributes
                0x000009c3       0x33 contiki-cc13xx.a(rpl-timers.o)
 .ARM.attributes
                0x000009f6       0x33 contiki-cc13xx.a(rpl.o)
 .ARM.attributes
                0x00000a29       0x33 contiki-cc13xx.a(rpl-mrhof.o)
 .ARM.attributes
                0x00000a5c       0x33 contiki-cc13xx.a(setup.o)
 .ARM.attributes
                0x00000a8f       0x33 contiki-cc13xx.a(osc.o)
 .ARM.attributes
                0x00000ac2       0x33 contiki-cc13xx.a(setup_rom.o)
 .ARM.attributes
                0x00000af5       0x33 contiki-cc13xx.a(cpu.o)
 .ARM.attributes
                0x00000b28       0x33 contiki-cc13xx.a(ddi.o)
 .ARM.attributes
                0x00000b5b       0x33 contiki-cc13xx.a(rfc.o)
 .ARM.attributes
                0x00000b8e       0x33 contiki-cc13xx.a(chipinfo.o)
 .ARM.attributes
                0x00000bc1       0x33 contiki-cc13xx.a(adi.o)
 .ARM.attributes
                0x00000bf4       0x33 contiki-cc13xx.a(sys_ctrl.o)
 .ARM.attributes
                0x00000c27       0x33 contiki-cc13xx.a(pwr_ctrl.o)
 .ARM.attributes
                0x00000c5a       0x33 contiki-cc13xx.a(trng.o)
 .ARM.attributes
                0x00000c8d       0x33 contiki-cc13xx.a(aon_rtc.o)
 .ARM.attributes
                0x00000cc0       0x33 contiki-cc13xx.a(aon_batmon.o)
 .ARM.attributes
                0x00000cf3       0x33 contiki-cc13xx.a(orpl-bitmap.o)
 .ARM.attributes
                0x00000d26       0x33 contiki-cc13xx.a(queuebuf.o)
 .ARM.attributes
                0x00000d59       0x33 contiki-cc13xx.a(nbr-table.o)
 .ARM.attributes
                0x00000d8c       0x33 contiki-cc13xx.a(packetbuf.o)
 .ARM.attributes
                0x00000dbf       0x33 contiki-cc13xx.a(netstack.o)
 .ARM.attributes
                0x00000df2       0x33 contiki-cc13xx.a(linkaddr.o)
 .ARM.attributes
                0x00000e25       0x33 contiki-cc13xx.a(framer-802154.o)
 .ARM.attributes
                0x00000e58       0x33 contiki-cc13xx.a(csma.o)
 .ARM.attributes
                0x00000e8b       0x33 contiki-cc13xx.a(frame802154.o)
 .ARM.attributes
                0x00000ebe       0x33 contiki-cc13xx.a(mac.o)
 .ARM.attributes
                0x00000ef1       0x33 contiki-cc13xx.a(contikimac-fcf.)
 .ARM.attributes
                0x00000f24       0x33 contiki-cc13xx.a(nullsec.o)
 .ARM.attributes
                0x00000f57       0x33 contiki-cc13xx.a(rnfd-root.o)
 .ARM.attributes
                0x00000f8a       0x33 contiki-cc13xx.a(rnfd.o)
 .ARM.attributes
                0x00000fbd       0x33 contiki-cc13xx.a(udp-fragment.o)
 .ARM.attributes
                0x00000ff0       0x33 contiki-cc13xx.a(auto-sleep.o)
 .ARM.attributes
                0x00001023       0x33 contiki-cc13xx.a(netsynch.o)
 .ARM.attributes
                0x00001056       0x33 contiki-cc13xx.a(netsync-auto-ca)
 .ARM.attributes
                0x00001089       0x33 contiki-cc13xx.a(wake-common.o)
 .ARM.attributes
                0x000010bc       0x33 contiki-cc13xx.a(low-latency.o)
 .ARM.attributes
                0x000010ef       0x33 contiki-cc13xx.a(flashdata.o)
 .ARM.attributes
                0x00001122       0x33 contiki-cc13xx.a(smartrf-setting)
 .ARM.attributes
                0x00001155       0x33 contiki-cc13xx.a(aux-ctrl.o)
 .ARM.attributes
                0x00001188       0x33 contiki-cc13xx.a(fcf.o)
 .ARM.attributes
                0x000011bb       0x33 contiki-cc13xx.a(stimer.o)
 .ARM.attributes
                0x000011ee       0x33 contiki-cc13xx.a(memb.o)
 .ARM.attributes
                0x00001221       0x33 contiki-cc13xx.a(uip-icmp6.o)
 .ARM.attributes
                0x00001254       0x33 contiki-cc13xx.a(rpl-icmp6.o)
 .ARM.attributes
                0x00001287       0x33 contiki-cc13xx.a(flash.o)
 .ARM.attributes
                0x000012ba       0x33 contiki-cc13xx.a(vims.o)
 .ARM.attributes
                0x000012ed       0x33 contiki-cc13xx.a(mac-sequence.o)
 .ARM.attributes
                0x00001320       0x33 contiki-cc13xx.a(rnfd-icmp6.o)
 .ARM.attributes
                0x00001353       0x33 contiki-cc13xx.a(wake-dev.o)
 .ARM.attributes
                0x00001386       0x33 contiki-cc13xx.a(wake-node.o)
 .ARM.attributes
                0x000013b9       0x1d /opt/my1310ARM/toolchain/gcc-arm-none-eabi-4_9-2015q3/bin/../lib/gcc/arm-none-eabi/4.9.3/armv7-m/libgcc.a(_aeabi_uldivmod.o)
 .ARM.attributes
                0x000013d6       0x2d /opt/my1310ARM/toolchain/gcc-arm-none-eabi-4_9-2015q3/bin/../lib/gcc/arm-none-eabi/4.9.3/armv7-m/libgcc.a(bpabi.o)
 .ARM.attributes
                0x00001403       0x1d /opt/my1310ARM/toolchain/gcc-arm-none-eabi-4_9-2015q3/bin/../lib/gcc/arm-none-eabi/4.9.3/armv7-m/libgcc.a(_dvmd_tls.o)
 .ARM.attributes
                0x00001420       0x2d /opt/my1310ARM/toolchain/gcc-arm-none-eabi-4_9-2015q3/bin/../lib/gcc/arm-none-eabi/4.9.3/armv7-m/libgcc.a(_divdi3.o)
 .ARM.attributes
                0x0000144d       0x2d /opt/my1310ARM/toolchain/gcc-arm-none-eabi-4_9-2015q3/bin/../lib/gcc/arm-none-eabi/4.9.3/armv7-m/libgcc.a(_udivdi3.o)
 .ARM.attributes
                0x0000147a       0x2d /opt/my1310ARM/toolchain/gcc-arm-none-eabi-4_9-2015q3/bin/../lib/gcc/arm-none-eabi/4.9.3/../../../../arm-none-eabi/lib/armv7-m/libc.a(lib_a-malloc.o)
 .ARM.attributes
                0x000014a7       0x2d /opt/my1310ARM/toolchain/gcc-arm-none-eabi-4_9-2015q3/bin/../lib/gcc/arm-none-eabi/4.9.3/../../../../arm-none-eabi/lib/armv7-m/libc.a(lib_a-mallocr.o)
 .ARM.attributes
                0x000014d4       0x2d /opt/my1310ARM/toolchain/gcc-arm-none-eabi-4_9-2015q3/bin/../lib/gcc/arm-none-eabi/4.9.3/../../../../arm-none-eabi/lib/armv7-m/libc.a(lib_a-memcmp.o)
 .ARM.attributes
                0x00001501       0x1b /opt/my1310ARM/toolchain/gcc-arm-none-eabi-4_9-2015q3/bin/../lib/gcc/arm-none-eabi/4.9.3/../../../../arm-none-eabi/lib/armv7-m/libc.a(lib_a-memcpy.o)
 .ARM.attributes
                0x0000151c       0x2d /opt/my1310ARM/toolchain/gcc-arm-none-eabi-4_9-2015q3/bin/../lib/gcc/arm-none-eabi/4.9.3/../../../../arm-none-eabi/lib/armv7-m/libc.a(lib_a-memmove.o)
 .ARM.attributes
                0x00001549       0x2d /opt/my1310ARM/toolchain/gcc-arm-none-eabi-4_9-2015q3/bin/../lib/gcc/arm-none-eabi/4.9.3/../../../../arm-none-eabi/lib/armv7-m/libc.a(lib_a-memset.o)
 .ARM.attributes
                0x00001576       0x2d /opt/my1310ARM/toolchain/gcc-arm-none-eabi-4_9-2015q3/bin/../lib/gcc/arm-none-eabi/4.9.3/../../../../arm-none-eabi/lib/armv7-m/libc.a(lib_a-mlock.o)
 .ARM.attributes
                0x000015a3       0x2d /opt/my1310ARM/toolchain/gcc-arm-none-eabi-4_9-2015q3/bin/../lib/gcc/arm-none-eabi/4.9.3/../../../../arm-none-eabi/lib/armv7-m/libc.a(lib_a-sbrkr.o)
 .ARM.attributes
                0x000015d0       0x2d /opt/my1310ARM/toolchain/gcc-arm-none-eabi-4_9-2015q3/bin/../lib/gcc/arm-none-eabi/4.9.3/../../../../arm-none-eabi/lib/armv7-m/libc.a(lib_a-strlen.o)
 .ARM.attributes
                0x000015fd       0x2d /opt/my1310ARM/toolchain/gcc-arm-none-eabi-4_9-2015q3/bin/../lib/gcc/arm-none-eabi/4.9.3/../../../../arm-none-eabi/lib/armv7-m/libc.a(lib_a-freer.o)
 .ARM.attributes
                0x0000162a       0x2d /opt/my1310ARM/toolchain/gcc-arm-none-eabi-4_9-2015q3/bin/../lib/gcc/arm-none-eabi/4.9.3/../../../../arm-none-eabi/lib/armv7-m/libc.a(lib_a-impure.o)
 .ARM.attributes
                0x00001657       0x2d /opt/my1310ARM/toolchain/gcc-arm-none-eabi-4_9-2015q3/bin/../lib/gcc/arm-none-eabi/4.9.3/../../../../arm-none-eabi/lib/armv7-m/libc.a(lib_a-reent.o)
 .ARM.attributes
                0x00001684       0x2d /opt/my1310ARM/toolchain/gcc-arm-none-eabi-4_9-2015q3/bin/../lib/gcc/arm-none-eabi/4.9.3/../../../../arm-none-eabi/lib/armv7-m/libnosys.a(sbrk.o)

.debug_frame    0x00000000      0x36c
 .debug_frame   0x00000000       0x28 /opt/my1310ARM/toolchain/gcc-arm-none-eabi-4_9-2015q3/bin/../lib/gcc/arm-none-eabi/4.9.3/armv7-m/libgcc.a(_aeabi_uldivmod.o)
 .debug_frame   0x00000028       0x54 /opt/my1310ARM/toolchain/gcc-arm-none-eabi-4_9-2015q3/bin/../lib/gcc/arm-none-eabi/4.9.3/armv7-m/libgcc.a(bpabi.o)
 .debug_frame   0x0000007c       0x34 /opt/my1310ARM/toolchain/gcc-arm-none-eabi-4_9-2015q3/bin/../lib/gcc/arm-none-eabi/4.9.3/armv7-m/libgcc.a(_divdi3.o)
 .debug_frame   0x000000b0       0x34 /opt/my1310ARM/toolchain/gcc-arm-none-eabi-4_9-2015q3/bin/../lib/gcc/arm-none-eabi/4.9.3/armv7-m/libgcc.a(_udivdi3.o)
 .debug_frame   0x000000e4       0x30 /opt/my1310ARM/toolchain/gcc-arm-none-eabi-4_9-2015q3/bin/../lib/gcc/arm-none-eabi/4.9.3/../../../../arm-none-eabi/lib/armv7-m/libc.a(lib_a-malloc.o)
 .debug_frame   0x00000114       0x54 /opt/my1310ARM/toolchain/gcc-arm-none-eabi-4_9-2015q3/bin/../lib/gcc/arm-none-eabi/4.9.3/../../../../arm-none-eabi/lib/armv7-m/libc.a(lib_a-mallocr.o)
 .debug_frame   0x00000168       0x38 /opt/my1310ARM/toolchain/gcc-arm-none-eabi-4_9-2015q3/bin/../lib/gcc/arm-none-eabi/4.9.3/../../../../arm-none-eabi/lib/armv7-m/libc.a(lib_a-memcmp.o)
 .debug_frame   0x000001a0       0x30 /opt/my1310ARM/toolchain/gcc-arm-none-eabi-4_9-2015q3/bin/../lib/gcc/arm-none-eabi/4.9.3/../../../../arm-none-eabi/lib/armv7-m/libc.a(lib_a-memmove.o)
 .debug_frame   0x000001d0       0x34 /opt/my1310ARM/toolchain/gcc-arm-none-eabi-4_9-2015q3/bin/../lib/gcc/arm-none-eabi/4.9.3/../../../../arm-none-eabi/lib/armv7-m/libc.a(lib_a-memset.o)
 .debug_frame   0x00000204       0x30 /opt/my1310ARM/toolchain/gcc-arm-none-eabi-4_9-2015q3/bin/../lib/gcc/arm-none-eabi/4.9.3/../../../../arm-none-eabi/lib/armv7-m/libc.a(lib_a-mlock.o)
 .debug_frame   0x00000234       0x2c /opt/my1310ARM/toolchain/gcc-arm-none-eabi-4_9-2015q3/bin/../lib/gcc/arm-none-eabi/4.9.3/../../../../arm-none-eabi/lib/armv7-m/libc.a(lib_a-sbrkr.o)
 .debug_frame   0x00000260       0x20 /opt/my1310ARM/toolchain/gcc-arm-none-eabi-4_9-2015q3/bin/../lib/gcc/arm-none-eabi/4.9.3/../../../../arm-none-eabi/lib/armv7-m/libc.a(lib_a-strlen.o)
 .debug_frame   0x00000280       0x74 /opt/my1310ARM/toolchain/gcc-arm-none-eabi-4_9-2015q3/bin/../lib/gcc/arm-none-eabi/4.9.3/../../../../arm-none-eabi/lib/armv7-m/libc.a(lib_a-freer.o)
 .debug_frame   0x000002f4       0x58 /opt/my1310ARM/toolchain/gcc-arm-none-eabi-4_9-2015q3/bin/../lib/gcc/arm-none-eabi/4.9.3/../../../../arm-none-eabi/lib/armv7-m/libc.a(lib_a-reent.o)
 .debug_frame   0x0000034c       0x20 /opt/my1310ARM/toolchain/gcc-arm-none-eabi-4_9-2015q3/bin/../lib/gcc/arm-none-eabi/4.9.3/../../../../arm-none-eabi/lib/armv7-m/libnosys.a(sbrk.o)

Cross Reference Table

Symbol                                            File
AONIntHandler                                     obj_cc13xx/startup_gcc.o
AONProgIntHandler                                 obj_cc13xx/startup_gcc.o
AONRTCIntHandler                                  contiki-cc13xx.a(soc-rtc.o)
                                                  obj_cc13xx/startup_gcc.o
AUXADCIntHandler                                  obj_cc13xx/startup_gcc.o
AUXCombEventIntHandler                            obj_cc13xx/startup_gcc.o
AUXCompAIntHandler                                obj_cc13xx/startup_gcc.o
AUXSWEvent0IntHandler                             obj_cc13xx/startup_gcc.o
AUXSWEvent1IntHandler                             obj_cc13xx/startup_gcc.o
BusFaultIntHandler                                obj_cc13xx/startup_gcc.o
CryptoIntHandler                                  obj_cc13xx/startup_gcc.o
DebugMonIntHandler                                obj_cc13xx/startup_gcc.o
DynProgIntHandler                                 obj_cc13xx/startup_gcc.o
FaultISR                                          obj_cc13xx/fault-handlers.o
FlashIntHandler                                   obj_cc13xx/startup_gcc.o
GPIOIntHandler                                    obj_cc13xx/startup_gcc.o
I2CIntHandler                                     obj_cc13xx/startup_gcc.o
I2SIntHandler                                     obj_cc13xx/startup_gcc.o
MPUFaultIntHandler                                obj_cc13xx/startup_gcc.o
MemBusWrkAroundHapiEraseSector                    contiki-cc13xx.a(flash.o)
MemBusWrkAroundHapiProgramFlash                   contiki-cc13xx.a(flash.o)
MeterCommandBurn                                  contiki-cc13xx.a(node_function.o)
NOROM_AONBatMonTemperatureGetDegC                 contiki-cc13xx.a(aon_batmon.o)
                                                  contiki-cc13xx.a(sys_ctrl.o)
                                                  contiki-cc13xx.a(osc.o)
NOROM_AONRTCCurrent64BitValueGet                  contiki-cc13xx.a(aon_rtc.o)
NOROM_AONRTCCurrentCompareValueGet                contiki-cc13xx.a(aon_rtc.o)
                                                  contiki-cc13xx.a(osc.o)
                                                  contiki-cc13xx.a(soc-rtc.o)
                                                  contiki-cc13xx.a(rtimer-arch.o)
NOROM_CPUbasepriGet                               contiki-cc13xx.a(cpu.o)
NOROM_CPUcpsid                                    contiki-cc13xx.a(cpu.o)
                                                  contiki-cc13xx.a(aux-ctrl.o)
                                                  contiki-cc13xx.a(flashdata.o)
                                                  contiki-cc13xx.a(adi.o)
                                                  contiki-cc13xx.a(ddi.o)
                                                  contiki-cc13xx.a(soc-trng.o)
                                                  contiki-cc13xx.a(rf-ble.o)
                                                  contiki-cc13xx.a(rf-core.o)
                                                  contiki-cc13xx.a(lpm.o)
                                                  contiki-cc13xx.a(cc26xx-uart.o)
                                                  contiki-cc13xx.a(contiki-watchdo)
                                                  contiki-cc13xx.a(soc-rtc.o)
                                                  contiki-cc13xx.a(clock.o)
                                                  contiki-cc13xx.a(board.o)
                                                  contiki-cc13xx.a(contiki-main.o)
NOROM_CPUcpsie                                    contiki-cc13xx.a(cpu.o)
                                                  contiki-cc13xx.a(aux-ctrl.o)
                                                  contiki-cc13xx.a(flashdata.o)
                                                  contiki-cc13xx.a(adi.o)
                                                  contiki-cc13xx.a(ddi.o)
                                                  contiki-cc13xx.a(soc-trng.o)
                                                  contiki-cc13xx.a(rf-ble.o)
                                                  contiki-cc13xx.a(rf-core.o)
                                                  contiki-cc13xx.a(lpm.o)
                                                  contiki-cc13xx.a(cc26xx-uart.o)
                                                  contiki-cc13xx.a(contiki-watchdo)
                                                  contiki-cc13xx.a(soc-rtc.o)
                                                  contiki-cc13xx.a(clock.o)
                                                  contiki-cc13xx.a(board.o)
                                                  contiki-cc13xx.a(contiki-main.o)
NOROM_CPUdelay                                    contiki-cc13xx.a(cpu.o)
NOROM_CPUprimask                                  contiki-cc13xx.a(cpu.o)
NOROM_ChipInfo_GetChipFamily                      contiki-cc13xx.a(chipinfo.o)
                                                  contiki-cc13xx.a(prop-mode.o)
NOROM_ChipInfo_GetChipType                        contiki-cc13xx.a(chipinfo.o)
                                                  contiki-cc13xx.a(rf-core.o)
NOROM_ChipInfo_GetHwRevision                      contiki-cc13xx.a(chipinfo.o)
NOROM_ChipInfo_GetPackageType                     contiki-cc13xx.a(chipinfo.o)
NOROM_ChipInfo_GetSupportedProtocol_BV            contiki-cc13xx.a(chipinfo.o)
NOROM_DDI16BitRead                                contiki-cc13xx.a(ddi.o)
NOROM_DDI16BitWrite                               contiki-cc13xx.a(ddi.o)
NOROM_DDI16BitfieldRead                           contiki-cc13xx.a(ddi.o)
NOROM_DDI16BitfieldWrite                          contiki-cc13xx.a(ddi.o)
NOROM_DDI32RegWrite                               contiki-cc13xx.a(ddi.o)
                                                  contiki-cc13xx.a(setup_rom.o)
NOROM_FlashDisableSectorsForWrite                 contiki-cc13xx.a(flash.o)
NOROM_FlashEfuseReadRow                           contiki-cc13xx.a(flash.o)
NOROM_FlashPowerModeGet                           contiki-cc13xx.a(flash.o)
NOROM_FlashPowerModeSet                           contiki-cc13xx.a(flash.o)
NOROM_FlashProgram                                contiki-cc13xx.a(flash.o)
                                                  contiki-cc13xx.a(flashdata.o)
NOROM_FlashProtectionGet                          contiki-cc13xx.a(flash.o)
NOROM_FlashProtectionSave                         contiki-cc13xx.a(flash.o)
NOROM_FlashProtectionSet                          contiki-cc13xx.a(flash.o)
NOROM_FlashSectorErase                            contiki-cc13xx.a(flash.o)
                                                  contiki-cc13xx.a(flashdata.o)
NOROM_OSCClockSourceGet                           contiki-cc13xx.a(osc.o)
                                                  contiki-cc13xx.a(sys_ctrl.o)
                                                  contiki-cc13xx.a(setup_rom.o)
                                                  contiki-cc13xx.a(oscillators.o)
NOROM_OSCClockSourceSet                           contiki-cc13xx.a(osc.o)
                                                  contiki-cc13xx.a(sys_ctrl.o)
                                                  contiki-cc13xx.a(setup_rom.o)
                                                  contiki-cc13xx.a(oscillators.o)
NOROM_OSCHF_AttemptToSwitchToXosc                 contiki-cc13xx.a(osc.o)
NOROM_OSCHF_DebugGetCrystalAmplitude              contiki-cc13xx.a(osc.o)
NOROM_OSCHF_DebugGetExpectedAverageCrystalAmplitude contiki-cc13xx.a(osc.o)
NOROM_OSCHF_GetStartupTime                        contiki-cc13xx.a(osc.o)
NOROM_OSCHF_SwitchToRcOscTurnOffXosc              contiki-cc13xx.a(osc.o)
NOROM_OSCHF_TurnOnXosc                            contiki-cc13xx.a(osc.o)
NOROM_OSC_HPOSCRelativeFrequencyOffsetGet         contiki-cc13xx.a(osc.o)
NOROM_OSC_HPOSCRelativeFrequencyOffsetToRFCoreFormatConvert contiki-cc13xx.a(osc.o)
NOROM_PowerCtrlSourceSet                          contiki-cc13xx.a(pwr_ctrl.o)
                                                  contiki-cc13xx.a(lpm.o)
NOROM_RFCAdi3VcoLdoVoltageMode                    contiki-cc13xx.a(rfc.o)
                                                  contiki-cc13xx.a(prop-mode.o)
NOROM_RFCCPEPatchReset                            contiki-cc13xx.a(rfc.o)
NOROM_RFCCpeIntGetAndClear                        contiki-cc13xx.a(rfc.o)
NOROM_RFCDoorbellSendTo                           contiki-cc13xx.a(rfc.o)
NOROM_RFCRTrim                                    contiki-cc13xx.a(rfc.o)
                                                  contiki-cc13xx.a(prop-mode.o)
NOROM_RFCRfTrimRead                               contiki-cc13xx.a(rfc.o)
NOROM_RFCRfTrimSet                                contiki-cc13xx.a(rfc.o)
NOROM_RFCSynthPowerDown                           contiki-cc13xx.a(rfc.o)
NOROM_SetupAfterColdResetWakeupFromShutDownCfg1   contiki-cc13xx.a(setup_rom.o)
                                                  contiki-cc13xx.a(setup.o)
NOROM_SetupAfterColdResetWakeupFromShutDownCfg2   contiki-cc13xx.a(setup_rom.o)
                                                  contiki-cc13xx.a(setup.o)
NOROM_SetupAfterColdResetWakeupFromShutDownCfg3   contiki-cc13xx.a(setup_rom.o)
                                                  contiki-cc13xx.a(setup.o)
NOROM_SetupGetTrimForAdcShModeEn                  contiki-cc13xx.a(setup_rom.o)
NOROM_SetupGetTrimForAdcShVbufEn                  contiki-cc13xx.a(setup_rom.o)
NOROM_SetupGetTrimForAmpcompCtrl                  contiki-cc13xx.a(setup_rom.o)
NOROM_SetupGetTrimForAmpcompTh1                   contiki-cc13xx.a(setup_rom.o)
NOROM_SetupGetTrimForAmpcompTh2                   contiki-cc13xx.a(setup_rom.o)
NOROM_SetupGetTrimForAnabypassValue1              contiki-cc13xx.a(setup_rom.o)
NOROM_SetupGetTrimForDblrLoopFilterResetVoltage   contiki-cc13xx.a(setup_rom.o)
NOROM_SetupGetTrimForRadcExtCfg                   contiki-cc13xx.a(setup_rom.o)
NOROM_SetupGetTrimForRcOscLfIBiasTrim             contiki-cc13xx.a(setup_rom.o)
NOROM_SetupGetTrimForRcOscLfRtuneCtuneTrim        contiki-cc13xx.a(setup_rom.o)
NOROM_SetupGetTrimForXoscHfCtl                    contiki-cc13xx.a(setup_rom.o)
NOROM_SetupGetTrimForXoscHfFastStart              contiki-cc13xx.a(setup_rom.o)
NOROM_SetupGetTrimForXoscHfIbiastherm             contiki-cc13xx.a(setup_rom.o)
NOROM_SetupGetTrimForXoscLfRegulatorAndCmirrwrRatio contiki-cc13xx.a(setup_rom.o)
NOROM_SetupSetAonRtcSubSecInc                     contiki-cc13xx.a(setup_rom.o)
NOROM_SetupSetCacheModeAccordingToCcfgSetting     contiki-cc13xx.a(setup_rom.o)
                                                  contiki-cc13xx.a(setup.o)
NOROM_SetupSetVddrLevel                           contiki-cc13xx.a(setup_rom.o)
NOROM_SetupTrimDevice                             contiki-cc13xx.a(setup.o)
                                                  obj_cc13xx/startup_gcc.o
NOROM_SysCtrlAdjustRechargeAfterPowerDown         contiki-cc13xx.a(sys_ctrl.o)
                                                  contiki-cc13xx.a(lpm.o)
NOROM_SysCtrlPowerEverything                      contiki-cc13xx.a(sys_ctrl.o)
NOROM_SysCtrlResetSourceGet                       contiki-cc13xx.a(sys_ctrl.o)
NOROM_SysCtrlSetRechargeBeforePowerDown           contiki-cc13xx.a(sys_ctrl.o)
                                                  contiki-cc13xx.a(lpm.o)
NOROM_SysCtrl_DCDC_VoltageConditionalControl      contiki-cc13xx.a(sys_ctrl.o)
                                                  contiki-cc13xx.a(lpm.o)
NOROM_TRNGConfigure                               contiki-cc13xx.a(trng.o)
                                                  contiki-cc13xx.a(soc-trng.o)
NOROM_TRNGNumberGet                               contiki-cc13xx.a(trng.o)
NOROM_ThisCodeIsBuiltForCC13xxHwRev20AndLater_HaltIfViolated contiki-cc13xx.a(chipinfo.o)
                                                  contiki-cc13xx.a(setup.o)
NOROM_VIMSConfigure                               contiki-cc13xx.a(vims.o)
NOROM_VIMSModeGet                                 contiki-cc13xx.a(vims.o)
                                                  contiki-cc13xx.a(flashdata.o)
NOROM_VIMSModeSafeSet                             contiki-cc13xx.a(vims.o)
NOROM_VIMSModeSet                                 contiki-cc13xx.a(vims.o)
NmiSR                                             obj_cc13xx/startup_gcc.o
NodeReboot                                        contiki-cc13xx.a(node_function.o)
                                                  nodes-sender.co
NodeReset                                         contiki-cc13xx.a(node_function.o)
                                                  nodes-sender.co
PendSVIntHandler                                  obj_cc13xx/startup_gcc.o
RFCCPE0IntHandler                                 contiki-cc13xx.a(rf-core.o)
                                                  obj_cc13xx/startup_gcc.o
RFCCPE1IntHandler                                 contiki-cc13xx.a(rf-core.o)
                                                  obj_cc13xx/startup_gcc.o
RFCCmdAckIntHandler                               obj_cc13xx/startup_gcc.o
RFCHardwareIntHandler                             obj_cc13xx/startup_gcc.o
ResetISR                                          obj_cc13xx/startup_gcc.o
SSI0IntHandler                                    obj_cc13xx/startup_gcc.o
SSI1IntHandler                                    obj_cc13xx/startup_gcc.o
SVCallIntHandler                                  obj_cc13xx/startup_gcc.o
SWEvent0IntHandler                                obj_cc13xx/startup_gcc.o
SafeHapiAuxAdiSelect                              contiki-cc13xx.a(adi.o)
SafeHapiVoid                                      contiki-cc13xx.a(adi.o)
                                                  contiki-cc13xx.a(sys_ctrl.o)
                                                  contiki-cc13xx.a(osc.o)
                                                  contiki-cc13xx.a(oscillators.o)
SysTickIntHandler                                 obj_cc13xx/startup_gcc.o
TRNGIntHandler                                    contiki-cc13xx.a(soc-trng.o)
                                                  obj_cc13xx/startup_gcc.o
Timer0AIntHandler                                 obj_cc13xx/startup_gcc.o
Timer0BIntHandler                                 obj_cc13xx/startup_gcc.o
Timer1AIntHandler                                 obj_cc13xx/startup_gcc.o
Timer1BIntHandler                                 obj_cc13xx/startup_gcc.o
Timer2AIntHandler                                 obj_cc13xx/startup_gcc.o
Timer2BIntHandler                                 obj_cc13xx/startup_gcc.o
Timer3AIntHandler                                 obj_cc13xx/startup_gcc.o
Timer3BIntHandler                                 obj_cc13xx/startup_gcc.o
UART0IntHandler                                   contiki-cc13xx.a(cc26xx-uart.o)
                                                  obj_cc13xx/startup_gcc.o
UsageFaultIntHandler                              obj_cc13xx/startup_gcc.o
WatchdogIntHandler                                obj_cc13xx/startup_gcc.o
__aeabi_idiv0                                     /opt/my1310ARM/toolchain/gcc-arm-none-eabi-4_9-2015q3/bin/../lib/gcc/arm-none-eabi/4.9.3/armv7-m/libgcc.a(_dvmd_tls.o)
__aeabi_ldiv0                                     /opt/my1310ARM/toolchain/gcc-arm-none-eabi-4_9-2015q3/bin/../lib/gcc/arm-none-eabi/4.9.3/armv7-m/libgcc.a(_dvmd_tls.o)
                                                  /opt/my1310ARM/toolchain/gcc-arm-none-eabi-4_9-2015q3/bin/../lib/gcc/arm-none-eabi/4.9.3/armv7-m/libgcc.a(_aeabi_uldivmod.o)
__aeabi_uldivmod                                  /opt/my1310ARM/toolchain/gcc-arm-none-eabi-4_9-2015q3/bin/../lib/gcc/arm-none-eabi/4.9.3/armv7-m/libgcc.a(_aeabi_uldivmod.o)
                                                  contiki-cc13xx.a(strformat.o)
                                                  contiki-cc13xx.a(node_function.o)
__ccfg                                            obj_cc13xx/ccfg.o
__divdi3                                          /opt/my1310ARM/toolchain/gcc-arm-none-eabi-4_9-2015q3/bin/../lib/gcc/arm-none-eabi/4.9.3/armv7-m/libgcc.a(_divdi3.o)
                                                  /opt/my1310ARM/toolchain/gcc-arm-none-eabi-4_9-2015q3/bin/../lib/gcc/arm-none-eabi/4.9.3/armv7-m/libgcc.a(bpabi.o)
__gnu_ldivmod_helper                              /opt/my1310ARM/toolchain/gcc-arm-none-eabi-4_9-2015q3/bin/../lib/gcc/arm-none-eabi/4.9.3/armv7-m/libgcc.a(bpabi.o)
__gnu_uldivmod_helper                             /opt/my1310ARM/toolchain/gcc-arm-none-eabi-4_9-2015q3/bin/../lib/gcc/arm-none-eabi/4.9.3/armv7-m/libgcc.a(bpabi.o)
                                                  /opt/my1310ARM/toolchain/gcc-arm-none-eabi-4_9-2015q3/bin/../lib/gcc/arm-none-eabi/4.9.3/armv7-m/libgcc.a(_aeabi_uldivmod.o)
__malloc_av_                                      /opt/my1310ARM/toolchain/gcc-arm-none-eabi-4_9-2015q3/bin/../lib/gcc/arm-none-eabi/4.9.3/../../../../arm-none-eabi/lib/armv7-m/libc.a(lib_a-mallocr.o)
                                                  /opt/my1310ARM/toolchain/gcc-arm-none-eabi-4_9-2015q3/bin/../lib/gcc/arm-none-eabi/4.9.3/../../../../arm-none-eabi/lib/armv7-m/libc.a(lib_a-freer.o)
__malloc_current_mallinfo                         /opt/my1310ARM/toolchain/gcc-arm-none-eabi-4_9-2015q3/bin/../lib/gcc/arm-none-eabi/4.9.3/../../../../arm-none-eabi/lib/armv7-m/libc.a(lib_a-mallocr.o)
                                                  /opt/my1310ARM/toolchain/gcc-arm-none-eabi-4_9-2015q3/bin/../lib/gcc/arm-none-eabi/4.9.3/../../../../arm-none-eabi/lib/armv7-m/libc.a(lib_a-freer.o)
__malloc_lock                                     /opt/my1310ARM/toolchain/gcc-arm-none-eabi-4_9-2015q3/bin/../lib/gcc/arm-none-eabi/4.9.3/../../../../arm-none-eabi/lib/armv7-m/libc.a(lib_a-mlock.o)
                                                  /opt/my1310ARM/toolchain/gcc-arm-none-eabi-4_9-2015q3/bin/../lib/gcc/arm-none-eabi/4.9.3/../../../../arm-none-eabi/lib/armv7-m/libc.a(lib_a-freer.o)
                                                  /opt/my1310ARM/toolchain/gcc-arm-none-eabi-4_9-2015q3/bin/../lib/gcc/arm-none-eabi/4.9.3/../../../../arm-none-eabi/lib/armv7-m/libc.a(lib_a-mallocr.o)
__malloc_max_sbrked_mem                           /opt/my1310ARM/toolchain/gcc-arm-none-eabi-4_9-2015q3/bin/../lib/gcc/arm-none-eabi/4.9.3/../../../../arm-none-eabi/lib/armv7-m/libc.a(lib_a-mallocr.o)
__malloc_max_total_mem                            /opt/my1310ARM/toolchain/gcc-arm-none-eabi-4_9-2015q3/bin/../lib/gcc/arm-none-eabi/4.9.3/../../../../arm-none-eabi/lib/armv7-m/libc.a(lib_a-mallocr.o)
__malloc_sbrk_base                                /opt/my1310ARM/toolchain/gcc-arm-none-eabi-4_9-2015q3/bin/../lib/gcc/arm-none-eabi/4.9.3/../../../../arm-none-eabi/lib/armv7-m/libc.a(lib_a-mallocr.o)
                                                  /opt/my1310ARM/toolchain/gcc-arm-none-eabi-4_9-2015q3/bin/../lib/gcc/arm-none-eabi/4.9.3/../../../../arm-none-eabi/lib/armv7-m/libc.a(lib_a-freer.o)
__malloc_top_pad                                  /opt/my1310ARM/toolchain/gcc-arm-none-eabi-4_9-2015q3/bin/../lib/gcc/arm-none-eabi/4.9.3/../../../../arm-none-eabi/lib/armv7-m/libc.a(lib_a-mallocr.o)
                                                  /opt/my1310ARM/toolchain/gcc-arm-none-eabi-4_9-2015q3/bin/../lib/gcc/arm-none-eabi/4.9.3/../../../../arm-none-eabi/lib/armv7-m/libc.a(lib_a-freer.o)
__malloc_trim_threshold                           /opt/my1310ARM/toolchain/gcc-arm-none-eabi-4_9-2015q3/bin/../lib/gcc/arm-none-eabi/4.9.3/../../../../arm-none-eabi/lib/armv7-m/libc.a(lib_a-mallocr.o)
                                                  /opt/my1310ARM/toolchain/gcc-arm-none-eabi-4_9-2015q3/bin/../lib/gcc/arm-none-eabi/4.9.3/../../../../arm-none-eabi/lib/armv7-m/libc.a(lib_a-freer.o)
__malloc_unlock                                   /opt/my1310ARM/toolchain/gcc-arm-none-eabi-4_9-2015q3/bin/../lib/gcc/arm-none-eabi/4.9.3/../../../../arm-none-eabi/lib/armv7-m/libc.a(lib_a-mlock.o)
                                                  /opt/my1310ARM/toolchain/gcc-arm-none-eabi-4_9-2015q3/bin/../lib/gcc/arm-none-eabi/4.9.3/../../../../arm-none-eabi/lib/armv7-m/libc.a(lib_a-freer.o)
                                                  /opt/my1310ARM/toolchain/gcc-arm-none-eabi-4_9-2015q3/bin/../lib/gcc/arm-none-eabi/4.9.3/../../../../arm-none-eabi/lib/armv7-m/libc.a(lib_a-mallocr.o)
__udivdi3                                         /opt/my1310ARM/toolchain/gcc-arm-none-eabi-4_9-2015q3/bin/../lib/gcc/arm-none-eabi/4.9.3/armv7-m/libgcc.a(_udivdi3.o)
                                                  /opt/my1310ARM/toolchain/gcc-arm-none-eabi-4_9-2015q3/bin/../lib/gcc/arm-none-eabi/4.9.3/armv7-m/libgcc.a(bpabi.o)
_bss                                              obj_cc13xx/startup_gcc.o
_data                                             obj_cc13xx/startup_gcc.o
_ebss                                             obj_cc13xx/startup_gcc.o
_edata                                            obj_cc13xx/startup_gcc.o
_estack                                           obj_cc13xx/startup_gcc.o
_etext                                            obj_cc13xx/startup_gcc.o
_free_r                                           /opt/my1310ARM/toolchain/gcc-arm-none-eabi-4_9-2015q3/bin/../lib/gcc/arm-none-eabi/4.9.3/../../../../arm-none-eabi/lib/armv7-m/libc.a(lib_a-freer.o)
                                                  /opt/my1310ARM/toolchain/gcc-arm-none-eabi-4_9-2015q3/bin/../lib/gcc/arm-none-eabi/4.9.3/../../../../arm-none-eabi/lib/armv7-m/libc.a(lib_a-reent.o)
                                                  /opt/my1310ARM/toolchain/gcc-arm-none-eabi-4_9-2015q3/bin/../lib/gcc/arm-none-eabi/4.9.3/../../../../arm-none-eabi/lib/armv7-m/libc.a(lib_a-mallocr.o)
                                                  /opt/my1310ARM/toolchain/gcc-arm-none-eabi-4_9-2015q3/bin/../lib/gcc/arm-none-eabi/4.9.3/../../../../arm-none-eabi/lib/armv7-m/libc.a(lib_a-malloc.o)
_global_impure_ptr                                /opt/my1310ARM/toolchain/gcc-arm-none-eabi-4_9-2015q3/bin/../lib/gcc/arm-none-eabi/4.9.3/../../../../arm-none-eabi/lib/armv7-m/libc.a(lib_a-impure.o)
_impure_ptr                                       /opt/my1310ARM/toolchain/gcc-arm-none-eabi-4_9-2015q3/bin/../lib/gcc/arm-none-eabi/4.9.3/../../../../arm-none-eabi/lib/armv7-m/libc.a(lib_a-impure.o)
                                                  /opt/my1310ARM/toolchain/gcc-arm-none-eabi-4_9-2015q3/bin/../lib/gcc/arm-none-eabi/4.9.3/../../../../arm-none-eabi/lib/armv7-m/libc.a(lib_a-reent.o)
                                                  /opt/my1310ARM/toolchain/gcc-arm-none-eabi-4_9-2015q3/bin/../lib/gcc/arm-none-eabi/4.9.3/../../../../arm-none-eabi/lib/armv7-m/libc.a(lib_a-malloc.o)
_malloc_r                                         /opt/my1310ARM/toolchain/gcc-arm-none-eabi-4_9-2015q3/bin/../lib/gcc/arm-none-eabi/4.9.3/../../../../arm-none-eabi/lib/armv7-m/libc.a(lib_a-mallocr.o)
                                                  /opt/my1310ARM/toolchain/gcc-arm-none-eabi-4_9-2015q3/bin/../lib/gcc/arm-none-eabi/4.9.3/../../../../arm-none-eabi/lib/armv7-m/libc.a(lib_a-malloc.o)
_malloc_trim_r                                    /opt/my1310ARM/toolchain/gcc-arm-none-eabi-4_9-2015q3/bin/../lib/gcc/arm-none-eabi/4.9.3/../../../../arm-none-eabi/lib/armv7-m/libc.a(lib_a-freer.o)
_reclaim_reent                                    /opt/my1310ARM/toolchain/gcc-arm-none-eabi-4_9-2015q3/bin/../lib/gcc/arm-none-eabi/4.9.3/../../../../arm-none-eabi/lib/armv7-m/libc.a(lib_a-reent.o)
_sbrk                                             /opt/my1310ARM/toolchain/gcc-arm-none-eabi-4_9-2015q3/bin/../lib/gcc/arm-none-eabi/4.9.3/../../../../arm-none-eabi/lib/armv7-m/libnosys.a(sbrk.o)
                                                  /opt/my1310ARM/toolchain/gcc-arm-none-eabi-4_9-2015q3/bin/../lib/gcc/arm-none-eabi/4.9.3/../../../../arm-none-eabi/lib/armv7-m/libc.a(lib_a-sbrkr.o)
_sbrk_r                                           /opt/my1310ARM/toolchain/gcc-arm-none-eabi-4_9-2015q3/bin/../lib/gcc/arm-none-eabi/4.9.3/../../../../arm-none-eabi/lib/armv7-m/libc.a(lib_a-sbrkr.o)
                                                  /opt/my1310ARM/toolchain/gcc-arm-none-eabi-4_9-2015q3/bin/../lib/gcc/arm-none-eabi/4.9.3/../../../../arm-none-eabi/lib/armv7-m/libc.a(lib_a-freer.o)
                                                  /opt/my1310ARM/toolchain/gcc-arm-none-eabi-4_9-2015q3/bin/../lib/gcc/arm-none-eabi/4.9.3/../../../../arm-none-eabi/lib/armv7-m/libc.a(lib_a-mallocr.o)
add_cca                                           contiki-cc13xx.a(prop-mode.o)
app_send_flag                                     contiki-cc13xx.a(sicslowpan.o)
autostart_exit                                    contiki-cc13xx.a(autostart.o)
autostart_processes                               nodes-sender.co
                                                  contiki-cc13xx.a(contiki-main.o)
autostart_start                                   contiki-cc13xx.a(autostart.o)
                                                  contiki-cc13xx.a(contiki-main.o)
aux_ctrl_power_down                               contiki-cc13xx.a(aux-ctrl.o)
                                                  contiki-cc13xx.a(lpm.o)
aux_ctrl_power_up                                 contiki-cc13xx.a(aux-ctrl.o)
                                                  contiki-cc13xx.a(lpm.o)
aux_ctrl_register_consumer                        contiki-cc13xx.a(aux-ctrl.o)
                                                  contiki-cc13xx.a(oscillators.o)
                                                  contiki-cc13xx.a(lpm.o)
aux_ctrl_unregister_consumer                      contiki-cc13xx.a(aux-ctrl.o)
                                                  contiki-cc13xx.a(oscillators.o)
bitmap_receive_info                               contiki-cc13xx.a(orpl-bitmap.o)
                                                  contiki-cc13xx.a(frame802154.o)
                                                  contiki-cc13xx.a(tcpip.o)
bitmap_send_info                                  contiki-cc13xx.a(orpl-bitmap.o)
                                                  contiki-cc13xx.a(frame802154.o)
                                                  contiki-cc13xx.a(tcpip.o)
                                                  contiki-cc13xx.a(uip-ds6-nbr.o)
board_init                                        contiki-cc13xx.a(board.o)
                                                  contiki-cc13xx.a(contiki-main.o)
cache_wake_info                                   contiki-cc13xx.a(wake-common.o)
                                                  contiki-cc13xx.a(wake-node.o)
                                                  contiki-cc13xx.a(wake-dev.o)
cc26xx_uart_busy                                  contiki-cc13xx.a(cc26xx-uart.o)
                                                  contiki-cc13xx.a(putchar.o)
cc26xx_uart_init                                  contiki-cc13xx.a(cc26xx-uart.o)
                                                  contiki-cc13xx.a(contiki-main.o)
cc26xx_uart_set_input                             contiki-cc13xx.a(cc26xx-uart.o)
                                                  nodes-sender.co
cc26xx_uart_write_byte                            contiki-cc13xx.a(cc26xx-uart.o)
                                                  contiki-cc13xx.a(putchar.o)
channel_byte                                      contiki-cc13xx.a(wake-node.o)
                                                  contiki-cc13xx.a(netsynch.o)
                                                  contiki-cc13xx.a(rnfd.o)
                                                  contiki-cc13xx.a(rnfd-root.o)
                                                  contiki-cc13xx.a(orpl-bitmap.o)
                                                  contiki-cc13xx.a(netconfig.o)
                                                  contiki-cc13xx.a(node-id.o)
                                                  contiki-cc13xx.a(contiki-main.o)
                                                  contiki-cc13xx.a(node_function.o)
                                                  contiki-cc13xx.a(task-schedule.o)
                                                  nodes-sender.co
cleanup_glue                                      /opt/my1310ARM/toolchain/gcc-arm-none-eabi-4_9-2015q3/bin/../lib/gcc/arm-none-eabi/4.9.3/../../../../arm-none-eabi/lib/armv7-m/libc.a(lib_a-reent.o)
clear_force_auto_sleep                            contiki-cc13xx.a(auto-sleep.o)
                                                  contiki-cc13xx.a(netconfig.o)
clock_delay                                       contiki-cc13xx.a(clock.o)
                                                  contiki-cc13xx.a(leds.o)
clock_delay_usec                                  contiki-cc13xx.a(clock.o)
clock_init                                        contiki-cc13xx.a(clock.o)
                                                  contiki-cc13xx.a(contiki-main.o)
clock_seconds                                     contiki-cc13xx.a(clock.o)
                                                  contiki-cc13xx.a(stimer.o)
clock_time                                        contiki-cc13xx.a(clock.o)
                                                  contiki-cc13xx.a(rpl.o)
                                                  contiki-cc13xx.a(timer.o)
                                                  contiki-cc13xx.a(etimer.o)
                                                  contiki-cc13xx.a(lpm.o)
clock_update                                      contiki-cc13xx.a(clock.o)
                                                  contiki-cc13xx.a(lpm.o)
                                                  contiki-cc13xx.a(soc-rtc.o)
clock_wait                                        contiki-cc13xx.a(clock.o)
cmd_bytes_burn                                    contiki-cc13xx.a(node-id.o)
                                                  contiki-cc13xx.a(contiki-main.o)
cmd_read_meter                                    contiki-cc13xx.a(wake-node.o)
                                                  contiki-cc13xx.a(netsynch.o)
                                                  contiki-cc13xx.a(rnfd.o)
                                                  contiki-cc13xx.a(rnfd-root.o)
                                                  contiki-cc13xx.a(orpl-bitmap.o)
                                                  contiki-cc13xx.a(netconfig.o)
                                                  contiki-cc13xx.a(node-id.o)
                                                  contiki-cc13xx.a(contiki-main.o)
                                                  contiki-cc13xx.a(node_function.o)
                                                  contiki-cc13xx.a(task-schedule.o)
                                                  nodes-sender.co
compute_noise                                     contiki-cc13xx.a(prop-mode.o)
contikimac_debug_print                            contiki-cc13xx.a(contikimac-fcf.)
contikimac_fcf_driver                             contiki-cc13xx.a(contikimac-fcf.)
                                                  contiki-cc13xx.a(netsynch.o)
                                                  contiki-cc13xx.a(udp-fragment.o)
                                                  contiki-cc13xx.a(csma.o)
                                                  contiki-cc13xx.a(netstack.o)
                                                  contiki-cc13xx.a(rf-core.o)
                                                  contiki-cc13xx.a(contiki-main.o)
                                                  contiki-cc13xx.a(task-schedule.o)
                                                  nodes-sender.co
csma_driver                                       contiki-cc13xx.a(csma.o)
                                                  contiki-cc13xx.a(nullsec.o)
                                                  contiki-cc13xx.a(contikimac-fcf.)
                                                  contiki-cc13xx.a(netstack.o)
                                                  contiki-cc13xx.a(contiki-main.o)
ctimer_expired                                    contiki-cc13xx.a(ctimer.o)
ctimer_init                                       contiki-cc13xx.a(ctimer.o)
                                                  contiki-cc13xx.a(contiki-main.o)
ctimer_process                                    contiki-cc13xx.a(ctimer.o)
ctimer_reset                                      contiki-cc13xx.a(ctimer.o)
                                                  contiki-cc13xx.a(rpl-timers.o)
ctimer_restart                                    contiki-cc13xx.a(ctimer.o)
ctimer_set                                        contiki-cc13xx.a(ctimer.o)
                                                  contiki-cc13xx.a(rpl-icmp6.o)
                                                  contiki-cc13xx.a(wake-common.o)
                                                  contiki-cc13xx.a(netsynch.o)
                                                  contiki-cc13xx.a(auto-sleep.o)
                                                  contiki-cc13xx.a(udp-fragment.o)
                                                  contiki-cc13xx.a(rnfd.o)
                                                  contiki-cc13xx.a(rnfd-root.o)
                                                  contiki-cc13xx.a(contikimac-fcf.)
                                                  contiki-cc13xx.a(csma.o)
                                                  contiki-cc13xx.a(rpl-timers.o)
                                                  contiki-cc13xx.a(node_function.o)
                                                  contiki-cc13xx.a(task-schedule.o)
                                                  nodes-sender.co
ctimer_set_with_process                           contiki-cc13xx.a(ctimer.o)
ctimer_stop                                       contiki-cc13xx.a(ctimer.o)
                                                  contiki-cc13xx.a(rpl-icmp6.o)
                                                  contiki-cc13xx.a(netsynch.o)
                                                  contiki-cc13xx.a(udp-fragment.o)
                                                  contiki-cc13xx.a(rnfd.o)
                                                  contiki-cc13xx.a(contikimac-fcf.)
                                                  contiki-cc13xx.a(csma.o)
                                                  contiki-cc13xx.a(rpl-dag.o)
                                                  contiki-cc13xx.a(task-schedule.o)
dbg_send_bytes                                    contiki-cc13xx.a(putchar.o)
                                                  contiki-cc13xx.a(dbg-printf.o)
default_instance                                  contiki-cc13xx.a(rpl-dag.o)
                                                  contiki-cc13xx.a(rpl.o)
dio_output                                        contiki-cc13xx.a(rpl-icmp6.o)
                                                  contiki-cc13xx.a(rpl-timers.o)
dis_output                                        contiki-cc13xx.a(rpl-icmp6.o)
                                                  contiki-cc13xx.a(rpl-timers.o)
disable_etimer                                    contiki-cc13xx.a(soc-rtc.o)
ds6_neighbors                                     contiki-cc13xx.a(uip-ds6-nbr.o)
                                                  contiki-cc13xx.a(rpl-dag.o)
enable_etimer                                     contiki-cc13xx.a(soc-rtc.o)
end                                               /opt/my1310ARM/toolchain/gcc-arm-none-eabi-4_9-2015q3/bin/../lib/gcc/arm-none-eabi/4.9.3/../../../../arm-none-eabi/lib/armv7-m/libnosys.a(sbrk.o)
energest_UniCarriages                             contiki-cc13xx.a(energest.o)
                                                  contiki-cc13xx.a(contikimac-fcf.)
energest_UniCarriages_last                        contiki-cc13xx.a(energest.o)
energest_current_mode                             contiki-cc13xx.a(energest.o)
                                                  contiki-cc13xx.a(contikimac-fcf.)
                                                  contiki-cc13xx.a(leds.o)
                                                  contiki-cc13xx.a(soc-trng.o)
                                                  contiki-cc13xx.a(rf-core.o)
                                                  contiki-cc13xx.a(lpm.o)
                                                  contiki-cc13xx.a(cc26xx-uart.o)
                                                  contiki-cc13xx.a(soc-rtc.o)
                                                  contiki-cc13xx.a(prop-mode.o)
                                                  contiki-cc13xx.a(contiki-main.o)
energest_current_time                             contiki-cc13xx.a(energest.o)
                                                  contiki-cc13xx.a(contikimac-fcf.)
                                                  contiki-cc13xx.a(leds.o)
                                                  contiki-cc13xx.a(soc-trng.o)
                                                  contiki-cc13xx.a(rf-core.o)
                                                  contiki-cc13xx.a(lpm.o)
                                                  contiki-cc13xx.a(cc26xx-uart.o)
                                                  contiki-cc13xx.a(soc-rtc.o)
                                                  contiki-cc13xx.a(prop-mode.o)
                                                  contiki-cc13xx.a(contiki-main.o)
energest_flush                                    contiki-cc13xx.a(energest.o)
                                                  contiki-cc13xx.a(node_function.o)
energest_init                                     contiki-cc13xx.a(energest.o)
                                                  contiki-cc13xx.a(contiki-main.o)
energest_leveldevice_leveltime                    contiki-cc13xx.a(energest.o)
energest_total_count                              contiki-cc13xx.a(energest.o)
energest_total_time                               contiki-cc13xx.a(energest.o)
                                                  contiki-cc13xx.a(contikimac-fcf.)
                                                  contiki-cc13xx.a(leds.o)
                                                  contiki-cc13xx.a(soc-trng.o)
                                                  contiki-cc13xx.a(rf-core.o)
                                                  contiki-cc13xx.a(lpm.o)
                                                  contiki-cc13xx.a(cc26xx-uart.o)
                                                  contiki-cc13xx.a(soc-rtc.o)
                                                  contiki-cc13xx.a(prop-mode.o)
energest_type_set                                 contiki-cc13xx.a(energest.o)
                                                  contiki-cc13xx.a(lpm.o)
energest_type_time                                contiki-cc13xx.a(energest.o)
                                                  contiki-cc13xx.a(lpm.o)
                                                  contiki-cc13xx.a(node_function.o)
errno                                             /opt/my1310ARM/toolchain/gcc-arm-none-eabi-4_9-2015q3/bin/../lib/gcc/arm-none-eabi/4.9.3/../../../../arm-none-eabi/lib/armv7-m/libc.a(lib_a-reent.o)
                                                  /opt/my1310ARM/toolchain/gcc-arm-none-eabi-4_9-2015q3/bin/../lib/gcc/arm-none-eabi/4.9.3/../../../../arm-none-eabi/lib/armv7-m/libc.a(lib_a-sbrkr.o)
etimer_adjust                                     contiki-cc13xx.a(etimer.o)
etimer_expiration_time                            contiki-cc13xx.a(etimer.o)
etimer_expired                                    contiki-cc13xx.a(etimer.o)
                                                  contiki-cc13xx.a(netsynch.o)
                                                  contiki-cc13xx.a(tcpip.o)
                                                  contiki-cc13xx.a(ctimer.o)
                                                  contiki-cc13xx.a(rf-ble.o)
etimer_next_expiration_time                       contiki-cc13xx.a(etimer.o)
                                                  contiki-cc13xx.a(lpm.o)
etimer_pending                                    contiki-cc13xx.a(etimer.o)
                                                  contiki-cc13xx.a(lpm.o)
                                                  contiki-cc13xx.a(clock.o)
etimer_process                                    contiki-cc13xx.a(etimer.o)
                                                  contiki-cc13xx.a(contiki-main.o)
etimer_request_poll                               contiki-cc13xx.a(etimer.o)
                                                  contiki-cc13xx.a(clock.o)
etimer_reset                                      contiki-cc13xx.a(etimer.o)
                                                  contiki-cc13xx.a(uip-ds6.o)
                                                  contiki-cc13xx.a(ctimer.o)
etimer_reset_with_new_interval                    contiki-cc13xx.a(etimer.o)
etimer_restart                                    contiki-cc13xx.a(etimer.o)
                                                  contiki-cc13xx.a(ctimer.o)
etimer_set                                        contiki-cc13xx.a(etimer.o)
                                                  contiki-cc13xx.a(netsynch.o)
                                                  contiki-cc13xx.a(tcpip.o)
                                                  contiki-cc13xx.a(uip-ds6.o)
                                                  contiki-cc13xx.a(ctimer.o)
                                                  contiki-cc13xx.a(rf-ble.o)
                                                  contiki-cc13xx.a(task-schedule.o)
etimer_start_time                                 contiki-cc13xx.a(etimer.o)
etimer_stop                                       contiki-cc13xx.a(etimer.o)
                                                  contiki-cc13xx.a(ctimer.o)
                                                  contiki-cc13xx.a(task-schedule.o)
external_watch_dog                                contiki-cc13xx.a(netconfig.o)
fcf_driver                                        contiki-cc13xx.a(fcf.o)
                                                  contiki-cc13xx.a(udp-fragment.o)
                                                  contiki-cc13xx.a(uip6.o)
for_efficiency_test                               contiki-cc13xx.a(soc-rtc.o)
format_str                                        contiki-cc13xx.a(strformat.o)
format_str_v                                      contiki-cc13xx.a(strformat.o)
                                                  contiki-cc13xx.a(dbg-printf.o)
frame802154_create                                contiki-cc13xx.a(frame802154.o)
                                                  contiki-cc13xx.a(framer-802154.o)
frame802154_hdrlen                                contiki-cc13xx.a(frame802154.o)
                                                  contiki-cc13xx.a(framer-802154.o)
frame802154_parse                                 contiki-cc13xx.a(frame802154.o)
                                                  contiki-cc13xx.a(contikimac-fcf.)
                                                  contiki-cc13xx.a(framer-802154.o)
framer_802154                                     contiki-cc13xx.a(framer-802154.o)
                                                  contiki-cc13xx.a(contikimac-fcf.)
                                                  contiki-cc13xx.a(sicslowpan.o)
free                                              /opt/my1310ARM/toolchain/gcc-arm-none-eabi-4_9-2015q3/bin/../lib/gcc/arm-none-eabi/4.9.3/../../../../arm-none-eabi/lib/armv7-m/libc.a(lib_a-malloc.o)
                                                  nodes-sender.co
g_pfnVectors                                      obj_cc13xx/startup_gcc.o
g_pui8CcfgDefaultSec                              contiki-cc13xx.a(flash.o)
getNetDataTaskPeriod                              contiki-cc13xx.a(node_function.o)
getUniCarriages                                   contiki-cc13xx.a(energest.o)
                                                  contiki-cc13xx.a(node_function.o)
get_active_bit_length                             contiki-cc13xx.a(netconfig.o)
                                                  contiki-cc13xx.a(task-schedule.o)
get_active_flag                                   contiki-cc13xx.a(netconfig.o)
                                                  contiki-cc13xx.a(low-latency.o)
                                                  contiki-cc13xx.a(contikimac-fcf.)
                                                  contiki-cc13xx.a(rtimer.o)
                                                  contiki-cc13xx.a(lpm.o)
                                                  contiki-cc13xx.a(soc-rtc.o)
                                                  contiki-cc13xx.a(clock.o)
get_autocal_info                                  contiki-cc13xx.a(netsync-auto-ca)
                                                  contiki-cc13xx.a(node_function.o)
get_cal_count                                     contiki-cc13xx.a(netconfig.o)
                                                  contiki-cc13xx.a(soc-rtc.o)
get_cal_interval                                  contiki-cc13xx.a(netconfig.o)
                                                  contiki-cc13xx.a(soc-rtc.o)
get_cal_offest                                    contiki-cc13xx.a(netconfig.o)
                                                  contiki-cc13xx.a(soc-rtc.o)
get_cca_thr                                       contiki-cc13xx.a(prop-mode.o)
                                                  contiki-cc13xx.a(contikimac-fcf.)
get_concentrator_ipv6addr                         contiki-cc13xx.a(netsynch.o)
get_cycle_time                                    contiki-cc13xx.a(contikimac-fcf.)
                                                  contiki-cc13xx.a(node_function.o)
get_force_auto_sleep                              contiki-cc13xx.a(auto-sleep.o)
                                                  contiki-cc13xx.a(netconfig.o)
get_idle_time                                     contiki-cc13xx.a(netconfig.o)
                                                  contiki-cc13xx.a(netsynch.o)
                                                  contiki-cc13xx.a(contikimac-fcf.)
                                                  contiki-cc13xx.a(task-schedule.o)
                                                  nodes-sender.co
get_init_flag                                     contiki-cc13xx.a(netconfig.o)
                                                  contiki-cc13xx.a(contikimac-fcf.)
                                                  contiki-cc13xx.a(soc-rtc.o)
                                                  contiki-cc13xx.a(contiki-main.o)
get_lastseqnum                                    contiki-cc13xx.a(netsynch.o)
get_lowLatency_flag                               contiki-cc13xx.a(low-latency.o)
                                                  contiki-cc13xx.a(contikimac-fcf.)
                                                  contiki-cc13xx.a(rtimer.o)
                                                  contiki-cc13xx.a(lpm.o)
                                                  contiki-cc13xx.a(clock.o)
get_low_latency_active_second                     contiki-cc13xx.a(low-latency.o)
get_low_latency_active_time                       contiki-cc13xx.a(low-latency.o)
get_low_latency_interval                          contiki-cc13xx.a(low-latency.o)
get_low_latency_one_second_before                 contiki-cc13xx.a(low-latency.o)
                                                  contiki-cc13xx.a(soc-rtc.o)
get_match_length                                  contiki-cc13xx.a(uip-ds6.o)
get_nowdays                                       contiki-cc13xx.a(netconfig.o)
                                                  contiki-cc13xx.a(netsync-auto-ca)
get_orpl_packet_seqno                             contiki-cc13xx.a(orpl-bitmap.o)
                                                  contiki-cc13xx.a(fcf.o)
                                                  contiki-cc13xx.a(tcpip.o)
get_rdc_active_channel_check_rate                 contiki-cc13xx.a(contikimac-fcf.)
                                                  contiki-cc13xx.a(low-latency.o)
get_rdc_inactive_channel_check_interval           contiki-cc13xx.a(contikimac-fcf.)
get_receive_count                                 contiki-cc13xx.a(fcf.o)
get_recvmsg                                       contiki-cc13xx.a(netsynch.o)
get_rnfd_offline_nodag                            contiki-cc13xx.a(rnfd.o)
                                                  contiki-cc13xx.a(netsynch.o)
                                                  contiki-cc13xx.a(task-schedule.o)
get_rnfd_start_flag                               contiki-cc13xx.a(rnfd.o)
                                                  contiki-cc13xx.a(uip-ds6-nbr.o)
get_round_auto_sleep                              contiki-cc13xx.a(auto-sleep.o)
                                                  contiki-cc13xx.a(netconfig.o)
get_system_monitor_msg                            contiki-cc13xx.a(node_function.o)
                                                  nodes-sender.co
get_timenow                                       contiki-cc13xx.a(netconfig.o)
                                                  contiki-cc13xx.a(netsync-auto-ca)
                                                  contiki-cc13xx.a(netsynch.o)
                                                  contiki-cc13xx.a(soc-rtc.o)
                                                  contiki-cc13xx.a(node_function.o)
get_voltage                                       contiki-cc13xx.a(bat-voltage.o)
                                                  contiki-cc13xx.a(contikimac-fcf.)
                                                  contiki-cc13xx.a(node_function.o)
get_wake_info                                     contiki-cc13xx.a(wake-common.o)
                                                  contiki-cc13xx.a(wake-node.o)
get_wake_send                                     contiki-cc13xx.a(wake-common.o)
                                                  contiki-cc13xx.a(contikimac-fcf.)
icmp6_new                                         contiki-cc13xx.a(tcpip.o)
ieee_addr_cpy_to                                  contiki-cc13xx.a(ieee-addr.o)
                                                  contiki-cc13xx.a(contiki-main.o)
init_concentrator_ipv6addr                        contiki-cc13xx.a(netsynch.o)
instance_table                                    contiki-cc13xx.a(rpl-dag.o)
                                                  contiki-cc13xx.a(rpl-icmp6.o)
                                                  contiki-cc13xx.a(rpl.o)
leds_arch_get                                     contiki-cc13xx.a(board.o)
                                                  contiki-cc13xx.a(leds.o)
leds_arch_init                                    contiki-cc13xx.a(board.o)
                                                  contiki-cc13xx.a(leds.o)
leds_arch_set                                     contiki-cc13xx.a(board.o)
                                                  contiki-cc13xx.a(leds.o)
leds_blink                                        contiki-cc13xx.a(leds.o)
leds_get                                          contiki-cc13xx.a(leds.o)
leds_init                                         contiki-cc13xx.a(leds.o)
                                                  contiki-cc13xx.a(board.o)
leds_off                                          contiki-cc13xx.a(leds.o)
                                                  nodes-sender.co
leds_on                                           contiki-cc13xx.a(leds.o)
leds_set                                          contiki-cc13xx.a(leds.o)
leds_toggle                                       contiki-cc13xx.a(leds.o)
linkaddr_cmp                                      contiki-cc13xx.a(linkaddr.o)
                                                  contiki-cc13xx.a(mac-sequence.o)
                                                  contiki-cc13xx.a(contikimac-fcf.)
                                                  contiki-cc13xx.a(csma.o)
                                                  contiki-cc13xx.a(packetbuf.o)
                                                  contiki-cc13xx.a(nbr-table.o)
                                                  contiki-cc13xx.a(uip-ds6-nbr.o)
                                                  nodes-sender.co
linkaddr_copy                                     contiki-cc13xx.a(linkaddr.o)
                                                  contiki-cc13xx.a(mac-sequence.o)
                                                  contiki-cc13xx.a(frame802154.o)
                                                  contiki-cc13xx.a(csma.o)
                                                  contiki-cc13xx.a(framer-802154.o)
                                                  contiki-cc13xx.a(packetbuf.o)
                                                  contiki-cc13xx.a(nbr-table.o)
                                                  contiki-cc13xx.a(sicslowpan.o)
linkaddr_node_addr                                contiki-cc13xx.a(linkaddr.o)
                                                  contiki-cc13xx.a(contikimac-fcf.)
                                                  contiki-cc13xx.a(framer-802154.o)
                                                  contiki-cc13xx.a(orpl-bitmap.o)
                                                  contiki-cc13xx.a(rf-ble.o)
                                                  contiki-cc13xx.a(contiki-main.o)
                                                  nodes-sender.co
linkaddr_null                                     contiki-cc13xx.a(linkaddr.o)
                                                  contiki-cc13xx.a(frame802154.o)
                                                  contiki-cc13xx.a(packetbuf.o)
                                                  contiki-cc13xx.a(nbr-table.o)
                                                  contiki-cc13xx.a(sicslowpan.o)
                                                  contiki-cc13xx.a(uip-ds6-nbr.o)
linkaddr_set_node_addr                            contiki-cc13xx.a(linkaddr.o)
list_add                                          contiki-cc13xx.a(list.o)
                                                  contiki-cc13xx.a(uip-icmp6.o)
                                                  contiki-cc13xx.a(aux-ctrl.o)
                                                  contiki-cc13xx.a(csma.o)
                                                  contiki-cc13xx.a(nbr-table.o)
                                                  contiki-cc13xx.a(uip-ds6-route.o)
                                                  contiki-cc13xx.a(ctimer.o)
                                                  contiki-cc13xx.a(lpm.o)
                                                  contiki-cc13xx.a(task-schedule.o)
list_chop                                         contiki-cc13xx.a(list.o)
list_copy                                         contiki-cc13xx.a(list.o)
list_head                                         contiki-cc13xx.a(list.o)
                                                  contiki-cc13xx.a(uip-icmp6.o)
                                                  contiki-cc13xx.a(aux-ctrl.o)
                                                  contiki-cc13xx.a(csma.o)
                                                  contiki-cc13xx.a(nbr-table.o)
                                                  contiki-cc13xx.a(uip-ds6-route.o)
                                                  contiki-cc13xx.a(ctimer.o)
                                                  contiki-cc13xx.a(lpm.o)
                                                  contiki-cc13xx.a(task-schedule.o)
list_init                                         contiki-cc13xx.a(list.o)
                                                  contiki-cc13xx.a(csma.o)
                                                  contiki-cc13xx.a(uip-ds6-route.o)
                                                  contiki-cc13xx.a(ctimer.o)
                                                  contiki-cc13xx.a(lpm.o)
                                                  contiki-cc13xx.a(task-schedule.o)
list_insert                                       contiki-cc13xx.a(list.o)
list_item_next                                    contiki-cc13xx.a(list.o)
                                                  contiki-cc13xx.a(uip-icmp6.o)
                                                  contiki-cc13xx.a(contikimac-fcf.)
                                                  contiki-cc13xx.a(csma.o)
                                                  contiki-cc13xx.a(nbr-table.o)
                                                  contiki-cc13xx.a(uip-ds6-route.o)
list_length                                       contiki-cc13xx.a(list.o)
                                                  contiki-cc13xx.a(csma.o)
                                                  contiki-cc13xx.a(uip-ds6-route.o)
list_pop                                          contiki-cc13xx.a(list.o)
list_push                                         contiki-cc13xx.a(list.o)
                                                  contiki-cc13xx.a(uip-ds6-route.o)
list_remove                                       contiki-cc13xx.a(list.o)
                                                  contiki-cc13xx.a(aux-ctrl.o)
                                                  contiki-cc13xx.a(csma.o)
                                                  contiki-cc13xx.a(nbr-table.o)
                                                  contiki-cc13xx.a(uip-ds6-route.o)
                                                  contiki-cc13xx.a(ctimer.o)
                                                  contiki-cc13xx.a(lpm.o)
                                                  contiki-cc13xx.a(task-schedule.o)
list_tail                                         contiki-cc13xx.a(list.o)
lladdr_from_ipaddr_uuid                           contiki-cc13xx.a(orpl-bitmap.o)
                                                  contiki-cc13xx.a(tcpip.o)
llprefix                                          contiki-cc13xx.a(sicslowpan.o)
logic_test                                        contiki-cc13xx.a(board.o)
lpm_drop                                          contiki-cc13xx.a(lpm.o)
                                                  contiki-cc13xx.a(contiki-main.o)
lpm_init                                          contiki-cc13xx.a(lpm.o)
                                                  contiki-cc13xx.a(contiki-main.o)
lpm_pin_set_default_state                         contiki-cc13xx.a(lpm.o)
                                                  contiki-cc13xx.a(cc26xx-uart.o)
lpm_register_module                               contiki-cc13xx.a(lpm.o)
                                                  contiki-cc13xx.a(soc-trng.o)
                                                  contiki-cc13xx.a(cc26xx-uart.o)
                                                  contiki-cc13xx.a(prop-mode.o)
                                                  contiki-cc13xx.a(board.o)
lpm_shutdown                                      contiki-cc13xx.a(lpm.o)
lpm_sleep                                         contiki-cc13xx.a(lpm.o)
                                                  contiki-cc13xx.a(prop-mode.o)
lpm_unregister_module                             contiki-cc13xx.a(lpm.o)
                                                  contiki-cc13xx.a(soc-trng.o)
mac_call_sent_callback                            contiki-cc13xx.a(mac.o)
                                                  contiki-cc13xx.a(contikimac-fcf.)
                                                  contiki-cc13xx.a(csma.o)
mac_sequence_is_duplicate                         contiki-cc13xx.a(mac-sequence.o)
                                                  contiki-cc13xx.a(contikimac-fcf.)
mac_sequence_register_seqno                       contiki-cc13xx.a(mac-sequence.o)
                                                  contiki-cc13xx.a(contikimac-fcf.)
main                                              contiki-cc13xx.a(contiki-main.o)
                                                  obj_cc13xx/startup_gcc.o
malloc                                            /opt/my1310ARM/toolchain/gcc-arm-none-eabi-4_9-2015q3/bin/../lib/gcc/arm-none-eabi/4.9.3/../../../../arm-none-eabi/lib/armv7-m/libc.a(lib_a-malloc.o)
                                                  nodes-sender.co
memb_alloc                                        contiki-cc13xx.a(memb.o)
                                                  contiki-cc13xx.a(csma.o)
                                                  contiki-cc13xx.a(nbr-table.o)
                                                  contiki-cc13xx.a(queuebuf.o)
                                                  contiki-cc13xx.a(uip-ds6-route.o)
memb_free                                         contiki-cc13xx.a(memb.o)
                                                  contiki-cc13xx.a(csma.o)
                                                  contiki-cc13xx.a(queuebuf.o)
                                                  contiki-cc13xx.a(uip-ds6-route.o)
memb_init                                         contiki-cc13xx.a(memb.o)
                                                  contiki-cc13xx.a(csma.o)
                                                  contiki-cc13xx.a(queuebuf.o)
                                                  contiki-cc13xx.a(uip-ds6-route.o)
memb_inmemb                                       contiki-cc13xx.a(memb.o)
                                                  contiki-cc13xx.a(queuebuf.o)
memb_numfree                                      contiki-cc13xx.a(memb.o)
                                                  contiki-cc13xx.a(queuebuf.o)
memcmp                                            /opt/my1310ARM/toolchain/gcc-arm-none-eabi-4_9-2015q3/bin/../lib/gcc/arm-none-eabi/4.9.3/../../../../arm-none-eabi/lib/armv7-m/libc.a(lib_a-memcmp.o)
                                                  contiki-cc13xx.a(rnfd.o)
                                                  contiki-cc13xx.a(linkaddr.o)
                                                  contiki-cc13xx.a(orpl-bitmap.o)
                                                  contiki-cc13xx.a(rpl-dag.o)
                                                  contiki-cc13xx.a(sicslowpan.o)
                                                  contiki-cc13xx.a(uip-ds6-nbr.o)
                                                  contiki-cc13xx.a(uip6.o)
                                                  contiki-cc13xx.a(uip-ds6-route.o)
                                                  contiki-cc13xx.a(uip-ds6.o)
memcpy                                            /opt/my1310ARM/toolchain/gcc-arm-none-eabi-4_9-2015q3/bin/../lib/gcc/arm-none-eabi/4.9.3/../../../../arm-none-eabi/lib/armv7-m/libc.a(lib_a-memcpy.o)
                                                  contiki-cc13xx.a(rpl-icmp6.o)
                                                  contiki-cc13xx.a(wake-common.o)
                                                  contiki-cc13xx.a(udp-fragment.o)
                                                  contiki-cc13xx.a(packetbuf.o)
                                                  contiki-cc13xx.a(rpl-dag.o)
                                                  contiki-cc13xx.a(sicslowpan.o)
                                                  contiki-cc13xx.a(uip6.o)
                                                  contiki-cc13xx.a(rf-ble.o)
                                                  contiki-cc13xx.a(prop-mode.o)
                                                  contiki-cc13xx.a(board.o)
                                                  nodes-sender.co
memmove                                           /opt/my1310ARM/toolchain/gcc-arm-none-eabi-4_9-2015q3/bin/../lib/gcc/arm-none-eabi/4.9.3/../../../../arm-none-eabi/lib/armv7-m/libc.a(lib_a-memmove.o)
                                                  contiki-cc13xx.a(udp-fragment.o)
                                                  contiki-cc13xx.a(uip6.o)
memset                                            /opt/my1310ARM/toolchain/gcc-arm-none-eabi-4_9-2015q3/bin/../lib/gcc/arm-none-eabi/4.9.3/../../../../arm-none-eabi/lib/armv7-m/libc.a(lib_a-memset.o)
                                                  contiki-cc13xx.a(rpl-icmp6.o)
                                                  contiki-cc13xx.a(memb.o)
                                                  contiki-cc13xx.a(flashdata.o)
                                                  contiki-cc13xx.a(udp-fragment.o)
                                                  contiki-cc13xx.a(rnfd.o)
                                                  contiki-cc13xx.a(framer-802154.o)
                                                  contiki-cc13xx.a(nbr-table.o)
                                                  contiki-cc13xx.a(rfc.o)
                                                  contiki-cc13xx.a(rpl-dag.o)
                                                  contiki-cc13xx.a(sicslowpan.o)
                                                  contiki-cc13xx.a(uip-ds6.o)
                                                  contiki-cc13xx.a(rf-ble.o)
                                                  contiki-cc13xx.a(rf-core.o)
                                                  contiki-cc13xx.a(prop-mode.o)
                                                  nodes-sender.co
nbr_table_add_lladdr                              contiki-cc13xx.a(nbr-table.o)
                                                  contiki-cc13xx.a(rpl-dag.o)
                                                  contiki-cc13xx.a(uip-ds6-nbr.o)
nbr_table_get_from_lladdr                         contiki-cc13xx.a(nbr-table.o)
                                                  contiki-cc13xx.a(rpl-dag.o)
                                                  contiki-cc13xx.a(uip-ds6-nbr.o)
nbr_table_get_lladdr                              contiki-cc13xx.a(nbr-table.o)
                                                  contiki-cc13xx.a(rpl-dag.o)
                                                  contiki-cc13xx.a(uip-ds6-nbr.o)
nbr_table_head                                    contiki-cc13xx.a(nbr-table.o)
                                                  contiki-cc13xx.a(rpl-dag.o)
                                                  contiki-cc13xx.a(uip-ds6-nbr.o)
nbr_table_lock                                    contiki-cc13xx.a(nbr-table.o)
                                                  contiki-cc13xx.a(rpl-dag.o)
nbr_table_next                                    contiki-cc13xx.a(nbr-table.o)
                                                  contiki-cc13xx.a(rpl-dag.o)
                                                  contiki-cc13xx.a(uip-ds6-nbr.o)
nbr_table_register                                contiki-cc13xx.a(nbr-table.o)
                                                  contiki-cc13xx.a(rpl-dag.o)
                                                  contiki-cc13xx.a(uip-ds6-nbr.o)
nbr_table_remove                                  contiki-cc13xx.a(nbr-table.o)
                                                  contiki-cc13xx.a(rpl-dag.o)
                                                  contiki-cc13xx.a(uip-ds6-nbr.o)
nbr_table_unlock                                  contiki-cc13xx.a(nbr-table.o)
                                                  contiki-cc13xx.a(rpl-dag.o)
netstack_init                                     contiki-cc13xx.a(netstack.o)
                                                  contiki-cc13xx.a(contiki-main.o)
netsync_autocal_init                              contiki-cc13xx.a(netsync-auto-ca)
                                                  contiki-cc13xx.a(netsynch.o)
netsync_autocal_update                            contiki-cc13xx.a(netsync-auto-ca)
                                                  contiki-cc13xx.a(netsynch.o)
netsync_cal_time_record                           contiki-cc13xx.a(netsync-auto-ca)
                                                  contiki-cc13xx.a(netsynch.o)
netsync_common_timesource                         contiki-cc13xx.a(netsynch.o)
                                                  contiki-cc13xx.a(task-schedule.o)
netsync_schedule_all_on                           contiki-cc13xx.a(netsynch.o)
                                                  contiki-cc13xx.a(task-schedule.o)
netsync_start_common_request                      contiki-cc13xx.a(netsynch.o)
                                                  contiki-cc13xx.a(rpl-dag.o)
netsynch_authority_level                          contiki-cc13xx.a(netsynch.o)
netsynch_cal_offset                               contiki-cc13xx.a(netsynch.o)
netsynch_get_offset                               contiki-cc13xx.a(netsynch.o)
                                                  contiki-cc13xx.a(node_function.o)
netsynch_init                                     contiki-cc13xx.a(netsynch.o)
                                                  contiki-cc13xx.a(contiki-main.o)
netsynch_is_synched                               contiki-cc13xx.a(netsynch.o)
                                                  contiki-cc13xx.a(auto-sleep.o)
                                                  contiki-cc13xx.a(task-schedule.o)
netsynch_process                                  contiki-cc13xx.a(netsynch.o)
netsynch_set_authority_level                      contiki-cc13xx.a(netsynch.o)
netsynch_time                                     contiki-cc13xx.a(netsynch.o)
node_id                                           contiki-cc13xx.a(node-id.o)
                                                  contiki-cc13xx.a(netsynch.o)
                                                  contiki-cc13xx.a(contiki-main.o)
                                                  contiki-cc13xx.a(task-schedule.o)
                                                  nodes-sender.co
node_id_burn                                      contiki-cc13xx.a(node-id.o)
                                                  contiki-cc13xx.a(contiki-main.o)
node_id_restore                                   contiki-cc13xx.a(node-id.o)
normal_byte                                       contiki-cc13xx.a(wake-node.o)
                                                  contiki-cc13xx.a(netsynch.o)
                                                  contiki-cc13xx.a(rnfd.o)
                                                  contiki-cc13xx.a(rnfd-root.o)
                                                  contiki-cc13xx.a(orpl-bitmap.o)
                                                  contiki-cc13xx.a(netconfig.o)
                                                  contiki-cc13xx.a(node-id.o)
                                                  contiki-cc13xx.a(contiki-main.o)
                                                  contiki-cc13xx.a(node_function.o)
                                                  contiki-cc13xx.a(task-schedule.o)
                                                  nodes-sender.co
normalbyte_rfchannel_burn                         contiki-cc13xx.a(node-id.o)
                                                  contiki-cc13xx.a(wake-node.o)
                                                  contiki-cc13xx.a(contiki-main.o)
                                                  contiki-cc13xx.a(node_function.o)
normalbyte_rfchannel_restore                      contiki-cc13xx.a(node-id.o)
                                                  contiki-cc13xx.a(contiki-main.o)
nullsec_driver                                    contiki-cc13xx.a(nullsec.o)
                                                  contiki-cc13xx.a(csma.o)
                                                  contiki-cc13xx.a(netstack.o)
                                                  contiki-cc13xx.a(sicslowpan.o)
orpl_bitmap_current_rank                          contiki-cc13xx.a(orpl-bitmap.o)
                                                  contiki-cc13xx.a(tcpip.o)
orpl_bitmap_duplicate_detect                      contiki-cc13xx.a(orpl-bitmap.o)
                                                  contiki-cc13xx.a(tcpip.o)
orpl_bitmap_duplicate_register                    contiki-cc13xx.a(orpl-bitmap.o)
                                                  contiki-cc13xx.a(tcpip.o)
orpl_bitmap_get_current_seqno                     contiki-cc13xx.a(orpl-bitmap.o)
                                                  contiki-cc13xx.a(udp-fragment.o)
orpl_bitmap_init                                  contiki-cc13xx.a(orpl-bitmap.o)
                                                  contiki-cc13xx.a(tcpip.o)
orpl_bitmap_limit_networking                      contiki-cc13xx.a(orpl-bitmap.o)
orpl_bitmap_panid_limit                           contiki-cc13xx.a(orpl-bitmap.o)
orpl_bitmap_root_rank                             contiki-cc13xx.a(orpl-bitmap.o)
                                                  contiki-cc13xx.a(tcpip.o)
orpl_bitmap_satisfy_fwd                           contiki-cc13xx.a(orpl-bitmap.o)
                                                  contiki-cc13xx.a(contikimac-fcf.)
orpl_get_parent_ipaddr                            contiki-cc13xx.a(orpl-bitmap.o)
                                                  contiki-cc13xx.a(uip-ds6-nbr.o)
orpl_get_parent_linkaddr                          contiki-cc13xx.a(orpl-bitmap.o)
oscillators_request_hf_xosc                       contiki-cc13xx.a(oscillators.o)
                                                  contiki-cc13xx.a(rf-ble.o)
                                                  contiki-cc13xx.a(prop-mode.o)
oscillators_select_lf_rcosc                       contiki-cc13xx.a(oscillators.o)
                                                  contiki-cc13xx.a(lpm.o)
oscillators_select_lf_xosc                        contiki-cc13xx.a(oscillators.o)
                                                  contiki-cc13xx.a(contiki-main.o)
oscillators_switch_to_hf_rc                       contiki-cc13xx.a(oscillators.o)
                                                  contiki-cc13xx.a(rf-ble.o)
                                                  contiki-cc13xx.a(lpm.o)
                                                  contiki-cc13xx.a(prop-mode.o)
oscillators_switch_to_hf_xosc                     contiki-cc13xx.a(oscillators.o)
                                                  contiki-cc13xx.a(rf-ble.o)
                                                  contiki-cc13xx.a(prop-mode.o)
packet_input_auto_sleep                           contiki-cc13xx.a(auto-sleep.o)
packetbuf_addr                                    contiki-cc13xx.a(packetbuf.o)
                                                  contiki-cc13xx.a(mac-sequence.o)
                                                  contiki-cc13xx.a(rpl-icmp6.o)
                                                  contiki-cc13xx.a(contikimac-fcf.)
                                                  contiki-cc13xx.a(csma.o)
                                                  contiki-cc13xx.a(framer-802154.o)
                                                  contiki-cc13xx.a(sicslowpan.o)
                                                  contiki-cc13xx.a(uip-ds6-nbr.o)
packetbuf_addrs                                   contiki-cc13xx.a(packetbuf.o)
packetbuf_attr                                    contiki-cc13xx.a(packetbuf.o)
                                                  contiki-cc13xx.a(mac-sequence.o)
                                                  contiki-cc13xx.a(contikimac-fcf.)
                                                  contiki-cc13xx.a(csma.o)
                                                  contiki-cc13xx.a(framer-802154.o)
                                                  contiki-cc13xx.a(sicslowpan.o)
packetbuf_attr_clear                              contiki-cc13xx.a(packetbuf.o)
packetbuf_attr_copyfrom                           contiki-cc13xx.a(packetbuf.o)
                                                  contiki-cc13xx.a(queuebuf.o)
packetbuf_attr_copyto                             contiki-cc13xx.a(packetbuf.o)
                                                  contiki-cc13xx.a(queuebuf.o)
packetbuf_attrs                                   contiki-cc13xx.a(packetbuf.o)
packetbuf_clear                                   contiki-cc13xx.a(packetbuf.o)
                                                  contiki-cc13xx.a(sicslowpan.o)
                                                  contiki-cc13xx.a(rf-core.o)
packetbuf_clear_hdr                               contiki-cc13xx.a(packetbuf.o)
packetbuf_compact                                 contiki-cc13xx.a(packetbuf.o)
packetbuf_copyfrom                                contiki-cc13xx.a(packetbuf.o)
                                                  contiki-cc13xx.a(queuebuf.o)
packetbuf_copyto                                  contiki-cc13xx.a(packetbuf.o)
                                                  contiki-cc13xx.a(queuebuf.o)
packetbuf_copyto_hdr                              contiki-cc13xx.a(packetbuf.o)
packetbuf_datalen                                 contiki-cc13xx.a(packetbuf.o)
                                                  contiki-cc13xx.a(contikimac-fcf.)
                                                  contiki-cc13xx.a(framer-802154.o)
                                                  contiki-cc13xx.a(sicslowpan.o)
packetbuf_dataptr                                 contiki-cc13xx.a(packetbuf.o)
                                                  contiki-cc13xx.a(contikimac-fcf.)
                                                  contiki-cc13xx.a(framer-802154.o)
                                                  contiki-cc13xx.a(sicslowpan.o)
                                                  contiki-cc13xx.a(rf-core.o)
packetbuf_hdr_remove                              contiki-cc13xx.a(packetbuf.o)
packetbuf_hdralloc                                contiki-cc13xx.a(packetbuf.o)
                                                  contiki-cc13xx.a(framer-802154.o)
packetbuf_hdrlen                                  contiki-cc13xx.a(packetbuf.o)
packetbuf_hdrptr                                  contiki-cc13xx.a(packetbuf.o)
                                                  contiki-cc13xx.a(contikimac-fcf.)
                                                  contiki-cc13xx.a(framer-802154.o)
packetbuf_hdrreduce                               contiki-cc13xx.a(packetbuf.o)
                                                  contiki-cc13xx.a(framer-802154.o)
packetbuf_holds_broadcast                         contiki-cc13xx.a(packetbuf.o)
                                                  contiki-cc13xx.a(contikimac-fcf.)
                                                  contiki-cc13xx.a(framer-802154.o)
packetbuf_set_addr                                contiki-cc13xx.a(packetbuf.o)
                                                  contiki-cc13xx.a(contikimac-fcf.)
                                                  contiki-cc13xx.a(framer-802154.o)
                                                  contiki-cc13xx.a(sicslowpan.o)
packetbuf_set_attr                                contiki-cc13xx.a(packetbuf.o)
                                                  contiki-cc13xx.a(nullsec.o)
                                                  contiki-cc13xx.a(contikimac-fcf.)
                                                  contiki-cc13xx.a(csma.o)
                                                  contiki-cc13xx.a(framer-802154.o)
                                                  contiki-cc13xx.a(sicslowpan.o)
                                                  contiki-cc13xx.a(prop-mode.o)
packetbuf_set_datalen                             contiki-cc13xx.a(packetbuf.o)
                                                  contiki-cc13xx.a(sicslowpan.o)
                                                  contiki-cc13xx.a(rf-core.o)
packetbuf_totlen                                  contiki-cc13xx.a(packetbuf.o)
                                                  contiki-cc13xx.a(contikimac-fcf.)
print_cmd_array                                   contiki-cc13xx.a(node-id.o)
                                                  contiki-cc13xx.a(contiki-main.o)
printf                                            contiki-cc13xx.a(dbg-printf.o)
                                                  contiki-cc13xx.a(wake-node.o)
                                                  contiki-cc13xx.a(rnfd-icmp6.o)
                                                  contiki-cc13xx.a(flashdata.o)
                                                  contiki-cc13xx.a(netsynch.o)
                                                  contiki-cc13xx.a(contikimac-fcf.)
                                                  contiki-cc13xx.a(uip-debug.o)
                                                  contiki-cc13xx.a(netconfig.o)
                                                  contiki-cc13xx.a(soc-rtc.o)
                                                  contiki-cc13xx.a(prop-mode.o)
                                                  contiki-cc13xx.a(node-id.o)
                                                  contiki-cc13xx.a(contiki-main.o)
                                                  contiki-cc13xx.a(node_function.o)
                                                  contiki-cc13xx.a(task-schedule.o)
process_alloc_event                               contiki-cc13xx.a(process.o)
                                                  contiki-cc13xx.a(tcpip.o)
                                                  contiki-cc13xx.a(serial-line.o)
                                                  contiki-cc13xx.a(soc-trng.o)
process_current                                   contiki-cc13xx.a(process.o)
                                                  contiki-cc13xx.a(netsynch.o)
                                                  contiki-cc13xx.a(tcpip.o)
                                                  contiki-cc13xx.a(serial-line.o)
                                                  contiki-cc13xx.a(etimer.o)
                                                  contiki-cc13xx.a(ctimer.o)
                                                  contiki-cc13xx.a(task-schedule.o)
                                                  nodes-sender.co
process_exit                                      contiki-cc13xx.a(process.o)
                                                  contiki-cc13xx.a(autostart.o)
                                                  contiki-cc13xx.a(rf-ble.o)
process_init                                      contiki-cc13xx.a(process.o)
                                                  contiki-cc13xx.a(contiki-main.o)
process_is_running                                contiki-cc13xx.a(process.o)
process_list                                      contiki-cc13xx.a(process.o)
process_nevents                                   contiki-cc13xx.a(process.o)
                                                  contiki-cc13xx.a(lpm.o)
process_poll                                      contiki-cc13xx.a(process.o)
                                                  contiki-cc13xx.a(serial-line.o)
                                                  contiki-cc13xx.a(etimer.o)
                                                  contiki-cc13xx.a(rf-core.o)
                                                  contiki-cc13xx.a(prop-mode.o)
process_post                                      contiki-cc13xx.a(process.o)
                                                  contiki-cc13xx.a(netsynch.o)
                                                  contiki-cc13xx.a(tcpip.o)
                                                  contiki-cc13xx.a(serial-line.o)
                                                  contiki-cc13xx.a(etimer.o)
                                                  contiki-cc13xx.a(soc-trng.o)
                                                  nodes-sender.co
process_post_synch                                contiki-cc13xx.a(process.o)
                                                  contiki-cc13xx.a(tcpip.o)
process_run                                       contiki-cc13xx.a(process.o)
                                                  contiki-cc13xx.a(contiki-main.o)
process_start                                     contiki-cc13xx.a(process.o)
                                                  contiki-cc13xx.a(wake-node.o)
                                                  contiki-cc13xx.a(netsynch.o)
                                                  contiki-cc13xx.a(serial-line.o)
                                                  contiki-cc13xx.a(ctimer.o)
                                                  contiki-cc13xx.a(autostart.o)
                                                  contiki-cc13xx.a(soc-trng.o)
                                                  contiki-cc13xx.a(prop-mode.o)
                                                  contiki-cc13xx.a(contiki-main.o)
                                                  contiki-cc13xx.a(task-schedule.o)
prop_mode_driver                                  contiki-cc13xx.a(prop-mode.o)
                                                  contiki-cc13xx.a(contikimac-fcf.)
                                                  contiki-cc13xx.a(netstack.o)
                                                  contiki-cc13xx.a(rf-ble.o)
                                                  contiki-cc13xx.a(rf-core.o)
                                                  contiki-cc13xx.a(contiki-main.o)
prop_mode_tx_power_431_527                        contiki-cc13xx.a(prop-mode-tx-po)
                                                  contiki-cc13xx.a(prop-mode.o)
prop_mode_tx_power_779_930                        contiki-cc13xx.a(prop-mode-tx-po)
putchar                                           contiki-cc13xx.a(putchar.o)
                                                  contiki-cc13xx.a(netsynch.o)
                                                  contiki-cc13xx.a(uip-debug.o)
                                                  contiki-cc13xx.a(contiki-main.o)
                                                  nodes-sender.co
puts                                              contiki-cc13xx.a(putchar.o)
                                                  contiki-cc13xx.a(wake-node.o)
                                                  contiki-cc13xx.a(flashdata.o)
                                                  contiki-cc13xx.a(netsynch.o)
                                                  contiki-cc13xx.a(auto-sleep.o)
                                                  contiki-cc13xx.a(rnfd.o)
                                                  contiki-cc13xx.a(contikimac-fcf.)
                                                  contiki-cc13xx.a(rf-core.o)
                                                  contiki-cc13xx.a(soc-rtc.o)
                                                  contiki-cc13xx.a(contiki-main.o)
                                                  contiki-cc13xx.a(node_function.o)
                                                  contiki-cc13xx.a(task-schedule.o)
                                                  nodes-sender.co
queuebuf_addr                                     contiki-cc13xx.a(queuebuf.o)
queuebuf_attr                                     contiki-cc13xx.a(queuebuf.o)
                                                  contiki-cc13xx.a(csma.o)
queuebuf_datalen                                  contiki-cc13xx.a(queuebuf.o)
queuebuf_dataptr                                  contiki-cc13xx.a(queuebuf.o)
queuebuf_debug_print                              contiki-cc13xx.a(queuebuf.o)
queuebuf_free                                     contiki-cc13xx.a(queuebuf.o)
                                                  contiki-cc13xx.a(csma.o)
queuebuf_init                                     contiki-cc13xx.a(queuebuf.o)
                                                  contiki-cc13xx.a(contiki-main.o)
queuebuf_new_from_packetbuf                       contiki-cc13xx.a(queuebuf.o)
                                                  contiki-cc13xx.a(csma.o)
queuebuf_numfree                                  contiki-cc13xx.a(queuebuf.o)
queuebuf_to_packetbuf                             contiki-cc13xx.a(queuebuf.o)
                                                  contiki-cc13xx.a(contikimac-fcf.)
queuebuf_update_attr_from_packetbuf               contiki-cc13xx.a(queuebuf.o)
                                                  contiki-cc13xx.a(csma.o)
queuebuf_update_from_packetbuf                    contiki-cc13xx.a(queuebuf.o)
                                                  contiki-cc13xx.a(contikimac-fcf.)
random_init                                       contiki-cc13xx.a(random.o)
                                                  contiki-cc13xx.a(contiki-main.o)
random_rand                                       contiki-cc13xx.a(random.o)
                                                  contiki-cc13xx.a(rpl-icmp6.o)
                                                  contiki-cc13xx.a(wake-common.o)
                                                  contiki-cc13xx.a(netsynch.o)
                                                  contiki-cc13xx.a(udp-fragment.o)
                                                  contiki-cc13xx.a(rnfd.o)
                                                  contiki-cc13xx.a(csma.o)
                                                  contiki-cc13xx.a(framer-802154.o)
                                                  contiki-cc13xx.a(orpl-bitmap.o)
                                                  contiki-cc13xx.a(rpl-timers.o)
                                                  contiki-cc13xx.a(uip-ds6.o)
                                                  contiki-cc13xx.a(task-schedule.o)
                                                  nodes-sender.co
rat_offset                                        contiki-cc13xx.a(rf-core.o)
rdc_turn_radio_off                                contiki-cc13xx.a(contikimac-fcf.)
read_flash                                        contiki-cc13xx.a(flashdata.o)
                                                  contiki-cc13xx.a(node-id.o)
real_time_clock_second                            contiki-cc13xx.a(soc-rtc.o)
remove_ext_hdr                                    contiki-cc13xx.a(uip6.o)
reset_contikimac_rtimer                           contiki-cc13xx.a(contikimac-fcf.)
                                                  contiki-cc13xx.a(soc-rtc.o)
restart_count                                     contiki-cc13xx.a(wake-node.o)
                                                  contiki-cc13xx.a(netsynch.o)
                                                  contiki-cc13xx.a(rnfd.o)
                                                  contiki-cc13xx.a(rnfd-root.o)
                                                  contiki-cc13xx.a(orpl-bitmap.o)
                                                  contiki-cc13xx.a(netconfig.o)
                                                  contiki-cc13xx.a(node-id.o)
                                                  contiki-cc13xx.a(contiki-main.o)
                                                  contiki-cc13xx.a(node_function.o)
                                                  contiki-cc13xx.a(task-schedule.o)
                                                  nodes-sender.co
restart_count_byte_burn                           contiki-cc13xx.a(node-id.o)
                                                  contiki-cc13xx.a(contiki-main.o)
restart_count_byte_restore                        contiki-cc13xx.a(node-id.o)
                                                  contiki-cc13xx.a(contiki-main.o)
restore_meter_cmd                                 contiki-cc13xx.a(node-id.o)
                                                  contiki-cc13xx.a(contiki-main.o)
                                                  nodes-sender.co
rf_ble_beacon_process                             contiki-cc13xx.a(rf-ble.o)
rf_ble_beacond_config                             contiki-cc13xx.a(rf-ble.o)
rf_ble_beacond_start                              contiki-cc13xx.a(rf-ble.o)
rf_ble_beacond_stop                               contiki-cc13xx.a(rf-ble.o)
rf_ble_is_active                                  contiki-cc13xx.a(rf-ble.o)
                                                  contiki-cc13xx.a(prop-mode.o)
rf_core_boot                                      contiki-cc13xx.a(rf-core.o)
                                                  contiki-cc13xx.a(rf-ble.o)
rf_core_cmd_done_dis                              contiki-cc13xx.a(rf-core.o)
                                                  contiki-cc13xx.a(prop-mode.o)
rf_core_cmd_done_en                               contiki-cc13xx.a(rf-core.o)
                                                  contiki-cc13xx.a(prop-mode.o)
rf_core_get_last_radio_op                         contiki-cc13xx.a(rf-core.o)
                                                  contiki-cc13xx.a(prop-mode.o)
rf_core_init_radio_op                             contiki-cc13xx.a(rf-core.o)
                                                  contiki-cc13xx.a(rf-ble.o)
rf_core_is_accessible                             contiki-cc13xx.a(rf-core.o)
                                                  contiki-cc13xx.a(rf-ble.o)
                                                  contiki-cc13xx.a(prop-mode.o)
rf_core_power_down                                contiki-cc13xx.a(rf-core.o)
                                                  contiki-cc13xx.a(rf-ble.o)
                                                  contiki-cc13xx.a(prop-mode.o)
rf_core_power_up                                  contiki-cc13xx.a(rf-core.o)
                                                  contiki-cc13xx.a(prop-mode.o)
rf_core_primary_mode_abort                        contiki-cc13xx.a(rf-core.o)
                                                  contiki-cc13xx.a(rf-ble.o)
rf_core_primary_mode_register                     contiki-cc13xx.a(rf-core.o)
                                                  contiki-cc13xx.a(prop-mode.o)
rf_core_primary_mode_restore                      contiki-cc13xx.a(rf-core.o)
                                                  contiki-cc13xx.a(rf-ble.o)
rf_core_process                                   contiki-cc13xx.a(rf-core.o)
                                                  contiki-cc13xx.a(prop-mode.o)
rf_core_restart_rat                               contiki-cc13xx.a(rf-core.o)
rf_core_send_cmd                                  contiki-cc13xx.a(rf-core.o)
                                                  contiki-cc13xx.a(rf-ble.o)
                                                  contiki-cc13xx.a(prop-mode.o)
rf_core_set_modesel                               contiki-cc13xx.a(rf-core.o)
                                                  contiki-cc13xx.a(prop-mode.o)
rf_core_setup_interrupts                          contiki-cc13xx.a(rf-core.o)
                                                  contiki-cc13xx.a(prop-mode.o)
rf_core_start_rat                                 contiki-cc13xx.a(rf-core.o)
                                                  contiki-cc13xx.a(prop-mode.o)
rf_core_stop_rat                                  contiki-cc13xx.a(rf-core.o)
rf_core_wait_cmd_done                             contiki-cc13xx.a(rf-core.o)
                                                  contiki-cc13xx.a(rf-ble.o)
                                                  contiki-cc13xx.a(prop-mode.o)
rime_sniffer_add                                  contiki-cc13xx.a(sicslowpan.o)
rime_sniffer_remove                               contiki-cc13xx.a(sicslowpan.o)
ringbuf_elements                                  contiki-cc13xx.a(ringbuf.o)
                                                  contiki-cc13xx.a(serial-line.o)
ringbuf_get                                       contiki-cc13xx.a(ringbuf.o)
                                                  contiki-cc13xx.a(serial-line.o)
ringbuf_init                                      contiki-cc13xx.a(ringbuf.o)
                                                  contiki-cc13xx.a(serial-line.o)
ringbuf_put                                       contiki-cc13xx.a(ringbuf.o)
                                                  contiki-cc13xx.a(serial-line.o)
ringbuf_size                                      contiki-cc13xx.a(ringbuf.o)
rnfd_common_input                                 contiki-cc13xx.a(rnfd.o)
                                                  contiki-cc13xx.a(rnfd-icmp6.o)
rnfd_icmp6_register_handlers                      contiki-cc13xx.a(rnfd-icmp6.o)
                                                  contiki-cc13xx.a(rnfd.o)
rnfd_info_add                                     contiki-cc13xx.a(rnfd.o)
                                                  contiki-cc13xx.a(rpl-dag.o)
rnfd_info_del_info                                contiki-cc13xx.a(rnfd.o)
rnfd_info_enter_blacklist                         contiki-cc13xx.a(rnfd.o)
                                                  contiki-cc13xx.a(rpl-dag.o)
rnfd_info_get_state                               contiki-cc13xx.a(rnfd.o)
                                                  contiki-cc13xx.a(uip-ds6-nbr.o)
rnfd_init                                         contiki-cc13xx.a(rnfd.o)
                                                  contiki-cc13xx.a(tcpip.o)
rnfd_request_deal                                 contiki-cc13xx.a(rnfd.o)
                                                  contiki-cc13xx.a(rnfd-icmp6.o)
rnfd_request_info                                 contiki-cc13xx.a(rnfd-root.o)
                                                  contiki-cc13xx.a(rpl-dag.o)
rnfd_request_out                                  contiki-cc13xx.a(rnfd-icmp6.o)
                                                  contiki-cc13xx.a(rnfd-root.o)
rnfd_root_input                                   contiki-cc13xx.a(rnfd-root.o)
                                                  contiki-cc13xx.a(rnfd-icmp6.o)
rnfd_schdule_suspect_out                          contiki-cc13xx.a(rnfd.o)
                                                  contiki-cc13xx.a(uip-ds6-nbr.o)
rnfd_send                                         contiki-cc13xx.a(rnfd-icmp6.o)
                                                  contiki-cc13xx.a(rnfd.o)
                                                  contiki-cc13xx.a(rnfd-root.o)
rnfd_set_root_immediate_children                  contiki-cc13xx.a(rnfd.o)
                                                  contiki-cc13xx.a(uip-ds6-nbr.o)
rpl_add_parent                                    contiki-cc13xx.a(rpl-dag.o)
rpl_alloc_dag                                     contiki-cc13xx.a(rpl-dag.o)
rpl_alloc_instance                                contiki-cc13xx.a(rpl-dag.o)
rpl_dag_init                                      contiki-cc13xx.a(rpl-dag.o)
                                                  contiki-cc13xx.a(rpl.o)
rpl_find_of                                       contiki-cc13xx.a(rpl-dag.o)
rpl_find_parent                                   contiki-cc13xx.a(rpl-dag.o)
rpl_find_parent_any_dag                           contiki-cc13xx.a(rpl-dag.o)
                                                  contiki-cc13xx.a(rpl.o)
rpl_free_dag                                      contiki-cc13xx.a(rpl-dag.o)
                                                  contiki-cc13xx.a(rnfd.o)
rpl_free_instance                                 contiki-cc13xx.a(rpl-dag.o)
                                                  contiki-cc13xx.a(rnfd.o)
rpl_get_any_dag                                   contiki-cc13xx.a(rpl-dag.o)
                                                  contiki-cc13xx.a(auto-sleep.o)
                                                  contiki-cc13xx.a(orpl-bitmap.o)
                                                  contiki-cc13xx.a(rpl-timers.o)
                                                  contiki-cc13xx.a(tcpip.o)
                                                  contiki-cc13xx.a(uip-ds6-nbr.o)
                                                  contiki-cc13xx.a(node_function.o)
                                                  contiki-cc13xx.a(task-schedule.o)
rpl_get_dag                                       contiki-cc13xx.a(rpl-dag.o)
                                                  contiki-cc13xx.a(rnfd-icmp6.o)
                                                  contiki-cc13xx.a(rnfd.o)
rpl_get_default_instance                          contiki-cc13xx.a(rpl-dag.o)
rpl_get_instance                                  contiki-cc13xx.a(rpl-dag.o)
                                                  contiki-cc13xx.a(rnfd-icmp6.o)
                                                  contiki-cc13xx.a(rnfd.o)
rpl_get_mode                                      contiki-cc13xx.a(rpl.o)
rpl_get_nbr                                       contiki-cc13xx.a(rpl-dag.o)
                                                  contiki-cc13xx.a(rpl-mrhof.o)
rpl_get_parent                                    contiki-cc13xx.a(rpl-dag.o)
rpl_get_parent_ipaddr                             contiki-cc13xx.a(rpl-dag.o)
                                                  contiki-cc13xx.a(rpl-timers.o)
                                                  contiki-cc13xx.a(node_function.o)
rpl_get_parent_link_metric                        contiki-cc13xx.a(rpl-dag.o)
rpl_get_parent_rank                               contiki-cc13xx.a(rpl-dag.o)
rpl_icmp6_register_handlers                       contiki-cc13xx.a(rpl-icmp6.o)
                                                  contiki-cc13xx.a(rpl.o)
rpl_init                                          contiki-cc13xx.a(rpl.o)
                                                  contiki-cc13xx.a(tcpip.o)
rpl_ipv6_neighbor_callback                        contiki-cc13xx.a(rpl.o)
                                                  contiki-cc13xx.a(uip-ds6-nbr.o)
rpl_join_instance                                 contiki-cc13xx.a(rpl-dag.o)
rpl_link_neighbor_callback                        contiki-cc13xx.a(rpl.o)
                                                  contiki-cc13xx.a(uip-ds6-nbr.o)
rpl_local_repair                                  contiki-cc13xx.a(rpl-dag.o)
rpl_move_parent                                   contiki-cc13xx.a(rpl-dag.o)
rpl_mrhof                                         contiki-cc13xx.a(rpl-mrhof.o)
                                                  contiki-cc13xx.a(rpl-icmp6.o)
                                                  contiki-cc13xx.a(rpl.o)
                                                  contiki-cc13xx.a(rpl-dag.o)
rpl_nullify_parent                                contiki-cc13xx.a(rpl-dag.o)
rpl_parents                                       contiki-cc13xx.a(rpl-dag.o)
rpl_process_dio                                   contiki-cc13xx.a(rpl-dag.o)
                                                  contiki-cc13xx.a(rpl-icmp6.o)
rpl_process_parent_event                          contiki-cc13xx.a(rpl-dag.o)
rpl_recalculate_ranks                             contiki-cc13xx.a(rpl-dag.o)
                                                  contiki-cc13xx.a(rpl-timers.o)
rpl_remove_parent                                 contiki-cc13xx.a(rpl-dag.o)
rpl_repair_root                                   contiki-cc13xx.a(rpl-dag.o)
rpl_reset_dio_timer                               contiki-cc13xx.a(rpl-timers.o)
                                                  contiki-cc13xx.a(rpl-dag.o)
rpl_reset_periodic_timer                          contiki-cc13xx.a(rpl-timers.o)
                                                  contiki-cc13xx.a(rpl.o)
rpl_schedule_unicast_dio_immediately              contiki-cc13xx.a(rpl-timers.o)
rpl_select_dag                                    contiki-cc13xx.a(rpl-dag.o)
rpl_select_parent                                 contiki-cc13xx.a(rpl-dag.o)
rpl_set_default_instance                          contiki-cc13xx.a(rpl-dag.o)
rpl_set_default_route                             contiki-cc13xx.a(rpl-dag.o)
rpl_set_prefix                                    contiki-cc13xx.a(rpl-dag.o)
rpl_set_root                                      contiki-cc13xx.a(rpl-dag.o)
rtimer_arch_init                                  contiki-cc13xx.a(rtimer-arch.o)
                                                  contiki-cc13xx.a(rtimer.o)
rtimer_arch_now                                   contiki-cc13xx.a(rtimer-arch.o)
                                                  contiki-cc13xx.a(contikimac-fcf.)
                                                  contiki-cc13xx.a(leds.o)
                                                  contiki-cc13xx.a(serial-line.o)
                                                  contiki-cc13xx.a(energest.o)
                                                  contiki-cc13xx.a(soc-trng.o)
                                                  contiki-cc13xx.a(rf-core.o)
                                                  contiki-cc13xx.a(lpm.o)
                                                  contiki-cc13xx.a(cc26xx-uart.o)
                                                  contiki-cc13xx.a(soc-rtc.o)
                                                  contiki-cc13xx.a(prop-mode.o)
                                                  contiki-cc13xx.a(contiki-main.o)
rtimer_arch_schedule                              contiki-cc13xx.a(rtimer-arch.o)
                                                  contiki-cc13xx.a(rtimer.o)
rtimer_init                                       contiki-cc13xx.a(rtimer.o)
                                                  contiki-cc13xx.a(contiki-main.o)
rtimer_run_next                                   contiki-cc13xx.a(rtimer.o)
                                                  contiki-cc13xx.a(soc-rtc.o)
rtimer_set                                        contiki-cc13xx.a(rtimer.o)
                                                  contiki-cc13xx.a(contikimac-fcf.)
schedule_bitmap_get                               contiki-cc13xx.a(netsynch.o)
                                                  contiki-cc13xx.a(netconfig.o)
schedule_bitmap_set_new                           contiki-cc13xx.a(netsynch.o)
serial_line_event_message                         contiki-cc13xx.a(serial-line.o)
serial_line_event_message2                        contiki-cc13xx.a(serial-line.o)
                                                  nodes-sender.co
serial_line_init                                  contiki-cc13xx.a(serial-line.o)
serial_line_init2                                 contiki-cc13xx.a(serial-line.o)
                                                  contiki-cc13xx.a(contiki-main.o)
serial_line_input_byte                            contiki-cc13xx.a(serial-line.o)
serial_line_input_byte2                           contiki-cc13xx.a(serial-line.o)
                                                  nodes-sender.co
serial_line_process                               contiki-cc13xx.a(serial-line.o)
serial_line_process2                              contiki-cc13xx.a(serial-line.o)
set_active_flag                                   contiki-cc13xx.a(netconfig.o)
                                                  contiki-cc13xx.a(soc-rtc.o)
set_autocal_info                                  contiki-cc13xx.a(netconfig.o)
                                                  contiki-cc13xx.a(netsync-auto-ca)
set_cal_countaddone                               contiki-cc13xx.a(netconfig.o)
                                                  contiki-cc13xx.a(soc-rtc.o)
set_cal_countzero                                 contiki-cc13xx.a(netconfig.o)
                                                  contiki-cc13xx.a(soc-rtc.o)
set_concentrator_ipv6addr                         contiki-cc13xx.a(netsynch.o)
set_cycletime                                     contiki-cc13xx.a(contikimac-fcf.)
                                                  contiki-cc13xx.a(low-latency.o)
set_delay_auto_sleep                              contiki-cc13xx.a(auto-sleep.o)
                                                  contiki-cc13xx.a(task-schedule.o)
set_init_flag                                     contiki-cc13xx.a(netconfig.o)
                                                  contiki-cc13xx.a(wake-node.o)
                                                  contiki-cc13xx.a(node-id.o)
set_ledon_flag                                    contiki-cc13xx.a(netconfig.o)
set_lowLatency_flag                               contiki-cc13xx.a(low-latency.o)
                                                  contiki-cc13xx.a(soc-rtc.o)
set_low_latency_active_second                     contiki-cc13xx.a(low-latency.o)
set_low_latency_channel_clear_flag                contiki-cc13xx.a(low-latency.o)
                                                  contiki-cc13xx.a(fcf.o)
set_low_latency_interval                          contiki-cc13xx.a(low-latency.o)
set_low_latency_one_second_before                 contiki-cc13xx.a(low-latency.o)
                                                  contiki-cc13xx.a(soc-rtc.o)
set_rdc_active_channel_check_rate                 contiki-cc13xx.a(contikimac-fcf.)
set_rdc_inactive_channel_check_interval           contiki-cc13xx.a(contikimac-fcf.)
set_recvmsg                                       contiki-cc13xx.a(netsynch.o)
set_rnfd_start_flag                               contiki-cc13xx.a(rnfd.o)
set_round_auto_sleep                              contiki-cc13xx.a(auto-sleep.o)
                                                  contiki-cc13xx.a(netconfig.o)
set_wake_send                                     contiki-cc13xx.a(wake-common.o)
                                                  contiki-cc13xx.a(wake-node.o)
setting_network_configuration1                    contiki-cc13xx.a(node_function.o)
                                                  nodes-sender.co
setting_network_configuration2                    contiki-cc13xx.a(node_function.o)
                                                  nodes-sender.co
sicslowpan_driver                                 contiki-cc13xx.a(sicslowpan.o)
                                                  contiki-cc13xx.a(nullsec.o)
                                                  contiki-cc13xx.a(netstack.o)
                                                  contiki-cc13xx.a(contiki-main.o)
sicslowpan_get_last_rssi                          contiki-cc13xx.a(sicslowpan.o)
sicslowpan_init                                   contiki-cc13xx.a(sicslowpan.o)
smartrf_settings_cmd_fs                           contiki-cc13xx.a(smartrf-setting)
                                                  contiki-cc13xx.a(prop-mode.o)
smartrf_settings_cmd_prop_radio_div_setup         contiki-cc13xx.a(smartrf-setting)
                                                  contiki-cc13xx.a(prop-mode.o)
smartrf_settings_cmd_prop_rx_adv                  contiki-cc13xx.a(smartrf-setting)
                                                  contiki-cc13xx.a(prop-mode.o)
smartrf_settings_cmd_prop_tx_adv                  contiki-cc13xx.a(smartrf-setting)
                                                  contiki-cc13xx.a(prop-mode.o)
soc_rtc_get_next_trigger                          contiki-cc13xx.a(soc-rtc.o)
soc_rtc_init                                      contiki-cc13xx.a(soc-rtc.o)
                                                  contiki-cc13xx.a(contiki-main.o)
soc_rtc_last_isr_time                             contiki-cc13xx.a(soc-rtc.o)
                                                  contiki-cc13xx.a(lpm.o)
soc_rtc_schedule_one_shot                         contiki-cc13xx.a(soc-rtc.o)
                                                  contiki-cc13xx.a(lpm.o)
                                                  contiki-cc13xx.a(rtimer-arch.o)
soc_trng_init                                     contiki-cc13xx.a(soc-trng.o)
                                                  contiki-cc13xx.a(random.o)
soc_trng_process                                  contiki-cc13xx.a(soc-trng.o)
soc_trng_rand_asynchronous                        contiki-cc13xx.a(soc-trng.o)
soc_trng_rand_synchronous                         contiki-cc13xx.a(soc-trng.o)
                                                  contiki-cc13xx.a(random.o)
stimer_elapsed                                    contiki-cc13xx.a(stimer.o)
stimer_expired                                    contiki-cc13xx.a(stimer.o)
                                                  contiki-cc13xx.a(uip-ds6-nbr.o)
                                                  contiki-cc13xx.a(uip-ds6-route.o)
                                                  contiki-cc13xx.a(uip-ds6.o)
stimer_remaining                                  contiki-cc13xx.a(stimer.o)
                                                  contiki-cc13xx.a(uip-ds6-nbr.o)
stimer_reset                                      contiki-cc13xx.a(stimer.o)
stimer_restart                                    contiki-cc13xx.a(stimer.o)
stimer_set                                        contiki-cc13xx.a(stimer.o)
                                                  contiki-cc13xx.a(rpl-icmp6.o)
                                                  contiki-cc13xx.a(uip-ds6-nbr.o)
                                                  contiki-cc13xx.a(uip-ds6-route.o)
                                                  contiki-cc13xx.a(uip-ds6.o)
strlen                                            /opt/my1310ARM/toolchain/gcc-arm-none-eabi-4_9-2015q3/bin/../lib/gcc/arm-none-eabi/4.9.3/../../../../arm-none-eabi/lib/armv7-m/libc.a(lib_a-strlen.o)
                                                  contiki-cc13xx.a(rf-ble.o)
                                                  contiki-cc13xx.a(putchar.o)
syn_update_timenow                                contiki-cc13xx.a(netconfig.o)
                                                  contiki-cc13xx.a(netsynch.o)
system_monitor_msg_send                           nodes-sender.co
task_schedule_change                              contiki-cc13xx.a(task-schedule.o)
                                                  contiki-cc13xx.a(soc-rtc.o)
task_schedule_init                                contiki-cc13xx.a(task-schedule.o)
                                                  contiki-cc13xx.a(contiki-main.o)
task_schedule_process                             contiki-cc13xx.a(task-schedule.o)
task_schedule_set                                 contiki-cc13xx.a(task-schedule.o)
                                                  nodes-sender.co
task_schedule_set_period                          contiki-cc13xx.a(task-schedule.o)
                                                  contiki-cc13xx.a(node_function.o)
task_schedule_stop                                contiki-cc13xx.a(task-schedule.o)
tcpip_event                                       contiki-cc13xx.a(tcpip.o)
                                                  contiki-cc13xx.a(wake-node.o)
                                                  contiki-cc13xx.a(netsynch.o)
                                                  nodes-sender.co
tcpip_icmp6_call                                  contiki-cc13xx.a(tcpip.o)
                                                  contiki-cc13xx.a(uip6.o)
tcpip_icmp6_event                                 contiki-cc13xx.a(tcpip.o)
tcpip_input                                       contiki-cc13xx.a(tcpip.o)
                                                  contiki-cc13xx.a(sicslowpan.o)
tcpip_ipv6_output                                 contiki-cc13xx.a(tcpip.o)
                                                  contiki-cc13xx.a(uip-icmp6.o)
                                                  contiki-cc13xx.a(udp-fragment.o)
tcpip_output                                      contiki-cc13xx.a(tcpip.o)
                                                  contiki-cc13xx.a(fcf.o)
tcpip_poll_udp                                    contiki-cc13xx.a(tcpip.o)
tcpip_process                                     contiki-cc13xx.a(tcpip.o)
                                                  contiki-cc13xx.a(contiki-main.o)
tcpip_set_outputfunc                              contiki-cc13xx.a(tcpip.o)
                                                  contiki-cc13xx.a(sicslowpan.o)
tcpip_uipcall                                     contiki-cc13xx.a(tcpip.o)
                                                  contiki-cc13xx.a(uip6.o)
test_use_flag                                     contiki-cc13xx.a(netconfig.o)
timer_expired                                     contiki-cc13xx.a(timer.o)
                                                  contiki-cc13xx.a(etimer.o)
timer_remaining                                   contiki-cc13xx.a(timer.o)
timer_reset                                       contiki-cc13xx.a(timer.o)
                                                  contiki-cc13xx.a(etimer.o)
timer_restart                                     contiki-cc13xx.a(timer.o)
                                                  contiki-cc13xx.a(etimer.o)
timer_set                                         contiki-cc13xx.a(timer.o)
                                                  contiki-cc13xx.a(etimer.o)
tx_power_current                                  contiki-cc13xx.a(prop-mode.o)
uDMAErrIntHandler                                 obj_cc13xx/startup_gcc.o
uDMAIntHandler                                    obj_cc13xx/startup_gcc.o
udp_attach                                        contiki-cc13xx.a(tcpip.o)
udp_broadcast_new                                 contiki-cc13xx.a(tcpip.o)
udp_client_process                                nodes-sender.co
udp_fragment_init                                 contiki-cc13xx.a(udp-fragment.o)
                                                  contiki-cc13xx.a(orpl-bitmap.o)
udp_fragment_packet_send                          contiki-cc13xx.a(udp-fragment.o)
                                                  contiki-cc13xx.a(uip-udp-packet.)
udp_fragment_send_callback                        contiki-cc13xx.a(udp-fragment.o)
                                                  contiki-cc13xx.a(sicslowpan.o)
udp_new                                           contiki-cc13xx.a(tcpip.o)
                                                  contiki-cc13xx.a(wake-node.o)
                                                  contiki-cc13xx.a(netsynch.o)
                                                  nodes-sender.co
uip_aligned_buf                                   contiki-cc13xx.a(uip6.o)
                                                  contiki-cc13xx.a(rnfd-icmp6.o)
                                                  contiki-cc13xx.a(rpl-icmp6.o)
                                                  contiki-cc13xx.a(uip-icmp6.o)
                                                  contiki-cc13xx.a(fcf.o)
                                                  contiki-cc13xx.a(udp-fragment.o)
                                                  contiki-cc13xx.a(orpl-bitmap.o)
                                                  contiki-cc13xx.a(tcpip.o)
                                                  contiki-cc13xx.a(uip-udp-packet.)
                                                  contiki-cc13xx.a(sicslowpan.o)
uip_appdata                                       contiki-cc13xx.a(uip6.o)
                                                  contiki-cc13xx.a(wake-node.o)
                                                  contiki-cc13xx.a(netsynch.o)
                                                  contiki-cc13xx.a(uip-udp-packet.)
                                                  nodes-sender.co
uip_chksum                                        contiki-cc13xx.a(uip6.o)
uip_conn                                          contiki-cc13xx.a(uip6.o)
                                                  contiki-cc13xx.a(tcpip.o)
uip_debug_ipaddr_print                            contiki-cc13xx.a(uip-debug.o)
                                                  nodes-sender.co
uip_debug_lladdr_print                            contiki-cc13xx.a(uip-debug.o)
uip_ds6_aaddr_add                                 contiki-cc13xx.a(uip-ds6.o)
uip_ds6_aaddr_lookup                              contiki-cc13xx.a(uip-ds6.o)
uip_ds6_aaddr_rm                                  contiki-cc13xx.a(uip-ds6.o)
uip_ds6_addr_add                                  contiki-cc13xx.a(uip-ds6.o)
                                                  contiki-cc13xx.a(rpl-dag.o)
                                                  nodes-sender.co
uip_ds6_addr_lookup                               contiki-cc13xx.a(uip-ds6.o)
                                                  contiki-cc13xx.a(rpl-dag.o)
                                                  contiki-cc13xx.a(tcpip.o)
                                                  contiki-cc13xx.a(uip6.o)
uip_ds6_addr_rm                                   contiki-cc13xx.a(uip-ds6.o)
                                                  contiki-cc13xx.a(rpl-dag.o)
uip_ds6_addr_size                                 contiki-cc13xx.a(uip-ds6.o)
uip_ds6_compute_reachable_time                    contiki-cc13xx.a(uip-ds6.o)
uip_ds6_defrt_add                                 contiki-cc13xx.a(uip-ds6-route.o)
                                                  contiki-cc13xx.a(rpl-dag.o)
uip_ds6_defrt_choose                              contiki-cc13xx.a(uip-ds6-route.o)
                                                  contiki-cc13xx.a(orpl-bitmap.o)
uip_ds6_defrt_lookup                              contiki-cc13xx.a(uip-ds6-route.o)
                                                  contiki-cc13xx.a(uip-ds6-nbr.o)
uip_ds6_defrt_periodic                            contiki-cc13xx.a(uip-ds6-route.o)
                                                  contiki-cc13xx.a(uip-ds6.o)
uip_ds6_defrt_rm                                  contiki-cc13xx.a(uip-ds6-route.o)
                                                  contiki-cc13xx.a(rpl-dag.o)
uip_ds6_get_global                                contiki-cc13xx.a(uip-ds6.o)
uip_ds6_get_least_lifetime_neighbor               contiki-cc13xx.a(uip-ds6-nbr.o)
uip_ds6_get_link_local                            contiki-cc13xx.a(uip-ds6.o)
                                                  contiki-cc13xx.a(rpl-timers.o)
uip_ds6_if                                        contiki-cc13xx.a(uip-ds6.o)
                                                  contiki-cc13xx.a(uip-icmp6.o)
                                                  contiki-cc13xx.a(uip6.o)
                                                  nodes-sender.co
uip_ds6_init                                      contiki-cc13xx.a(uip-ds6.o)
                                                  contiki-cc13xx.a(uip6.o)
uip_ds6_is_addr_onlink                            contiki-cc13xx.a(uip-ds6.o)
                                                  contiki-cc13xx.a(uip6.o)
uip_ds6_link_neighbor_callback                    contiki-cc13xx.a(uip-ds6-nbr.o)
                                                  contiki-cc13xx.a(sicslowpan.o)
uip_ds6_list_loop                                 contiki-cc13xx.a(uip-ds6.o)
uip_ds6_maddr_add                                 contiki-cc13xx.a(uip-ds6.o)
                                                  contiki-cc13xx.a(rpl.o)
                                                  nodes-sender.co
uip_ds6_maddr_lookup                              contiki-cc13xx.a(uip-ds6.o)
                                                  contiki-cc13xx.a(fcf.o)
                                                  contiki-cc13xx.a(uip6.o)
uip_ds6_maddr_rm                                  contiki-cc13xx.a(uip-ds6.o)
uip_ds6_nbr_add                                   contiki-cc13xx.a(uip-ds6-nbr.o)
                                                  contiki-cc13xx.a(rpl-icmp6.o)
uip_ds6_nbr_get_ipaddr                            contiki-cc13xx.a(uip-ds6-nbr.o)
uip_ds6_nbr_get_ll                                contiki-cc13xx.a(uip-ds6-nbr.o)
                                                  contiki-cc13xx.a(orpl-bitmap.o)
                                                  contiki-cc13xx.a(rpl-dag.o)
uip_ds6_nbr_ipaddr_from_lladdr                    contiki-cc13xx.a(uip-ds6-nbr.o)
                                                  contiki-cc13xx.a(rpl-dag.o)
uip_ds6_nbr_ll_lookup                             contiki-cc13xx.a(uip-ds6-nbr.o)
uip_ds6_nbr_lladdr_from_ipaddr                    contiki-cc13xx.a(uip-ds6-nbr.o)
                                                  contiki-cc13xx.a(rpl-dag.o)
uip_ds6_nbr_lookup                                contiki-cc13xx.a(uip-ds6-nbr.o)
                                                  contiki-cc13xx.a(rpl-icmp6.o)
                                                  contiki-cc13xx.a(rnfd.o)
                                                  contiki-cc13xx.a(orpl-bitmap.o)
                                                  contiki-cc13xx.a(rpl-dag.o)
                                                  contiki-cc13xx.a(uip-ds6-route.o)
                                                  contiki-cc13xx.a(node_function.o)
uip_ds6_nbr_num                                   contiki-cc13xx.a(uip-ds6-nbr.o)
                                                  contiki-cc13xx.a(netsynch.o)
                                                  contiki-cc13xx.a(node_function.o)
                                                  nodes-sender.co
uip_ds6_nbr_rm                                    contiki-cc13xx.a(uip-ds6-nbr.o)
uip_ds6_neighbor_periodic                         contiki-cc13xx.a(uip-ds6-nbr.o)
                                                  contiki-cc13xx.a(uip-ds6.o)
uip_ds6_neighbors_init                            contiki-cc13xx.a(uip-ds6-nbr.o)
                                                  contiki-cc13xx.a(uip-ds6.o)
uip_ds6_netif_addr_list_offset                    contiki-cc13xx.a(uip-ds6.o)
uip_ds6_notification_add                          contiki-cc13xx.a(uip-ds6-route.o)
uip_ds6_notification_rm                           contiki-cc13xx.a(uip-ds6-route.o)
uip_ds6_periodic                                  contiki-cc13xx.a(uip-ds6.o)
                                                  contiki-cc13xx.a(tcpip.o)
uip_ds6_prefix_add                                contiki-cc13xx.a(uip-ds6.o)
uip_ds6_prefix_list                               contiki-cc13xx.a(uip-ds6.o)
uip_ds6_prefix_lookup                             contiki-cc13xx.a(uip-ds6.o)
uip_ds6_prefix_rm                                 contiki-cc13xx.a(uip-ds6.o)
uip_ds6_route_init                                contiki-cc13xx.a(uip-ds6-route.o)
                                                  contiki-cc13xx.a(uip-ds6.o)
uip_ds6_select_src                                contiki-cc13xx.a(uip-ds6.o)
                                                  contiki-cc13xx.a(uip-icmp6.o)
                                                  contiki-cc13xx.a(uip6.o)
uip_ds6_set_addr_iid                              contiki-cc13xx.a(uip-ds6.o)
                                                  contiki-cc13xx.a(rpl.o)
                                                  contiki-cc13xx.a(rpl-dag.o)
                                                  contiki-cc13xx.a(sicslowpan.o)
                                                  nodes-sender.co
uip_ds6_timer_periodic                            contiki-cc13xx.a(uip-ds6.o)
                                                  contiki-cc13xx.a(tcpip.o)
uip_ds6_timer_ra                                  contiki-cc13xx.a(uip-ds6.o)
uip_ext_bitmap                                    contiki-cc13xx.a(uip6.o)
uip_ext_len                                       contiki-cc13xx.a(uip6.o)
                                                  contiki-cc13xx.a(rnfd-icmp6.o)
                                                  contiki-cc13xx.a(rpl-icmp6.o)
                                                  contiki-cc13xx.a(uip-icmp6.o)
                                                  contiki-cc13xx.a(fcf.o)
                                                  contiki-cc13xx.a(orpl-bitmap.o)
                                                  contiki-cc13xx.a(tcpip.o)
uip_ext_opt_offset                                contiki-cc13xx.a(uip6.o)
uip_flags                                         contiki-cc13xx.a(uip6.o)
                                                  contiki-cc13xx.a(wake-node.o)
                                                  contiki-cc13xx.a(netsynch.o)
                                                  nodes-sender.co
uip_htonl                                         contiki-cc13xx.a(uip6.o)
uip_htons                                         contiki-cc13xx.a(uip6.o)
                                                  nodes-sender.co
uip_icmp6_conns                                   contiki-cc13xx.a(uip6.o)
                                                  contiki-cc13xx.a(tcpip.o)
uip_icmp6_init                                    contiki-cc13xx.a(uip-icmp6.o)
                                                  contiki-cc13xx.a(uip6.o)
uip_icmp6_input                                   contiki-cc13xx.a(uip-icmp6.o)
                                                  contiki-cc13xx.a(uip6.o)
uip_icmp6_register_input_handler                  contiki-cc13xx.a(uip-icmp6.o)
                                                  contiki-cc13xx.a(rnfd-icmp6.o)
                                                  contiki-cc13xx.a(rpl-icmp6.o)
uip_icmp6_send                                    contiki-cc13xx.a(uip-icmp6.o)
                                                  contiki-cc13xx.a(rnfd-icmp6.o)
                                                  contiki-cc13xx.a(rpl-icmp6.o)
uip_icmp6chksum                                   contiki-cc13xx.a(uip6.o)
                                                  contiki-cc13xx.a(uip-icmp6.o)
uip_init                                          contiki-cc13xx.a(uip6.o)
                                                  contiki-cc13xx.a(tcpip.o)
uip_ipchksum                                      contiki-cc13xx.a(uip6.o)
uip_len                                           contiki-cc13xx.a(uip6.o)
                                                  contiki-cc13xx.a(rnfd-icmp6.o)
                                                  contiki-cc13xx.a(rpl-icmp6.o)
                                                  contiki-cc13xx.a(uip-icmp6.o)
                                                  contiki-cc13xx.a(fcf.o)
                                                  contiki-cc13xx.a(udp-fragment.o)
                                                  contiki-cc13xx.a(tcpip.o)
                                                  contiki-cc13xx.a(uip-udp-packet.)
                                                  contiki-cc13xx.a(sicslowpan.o)
uip_lladdr                                        contiki-cc13xx.a(uip6.o)
                                                  contiki-cc13xx.a(rpl-dag.o)
                                                  contiki-cc13xx.a(sicslowpan.o)
                                                  contiki-cc13xx.a(uip-ds6.o)
                                                  contiki-cc13xx.a(contiki-main.o)
                                                  nodes-sender.co
uip_nd6_init                                      contiki-cc13xx.a(uip-nd6.o)
                                                  contiki-cc13xx.a(uip6.o)
uip_next_hdr                                      contiki-cc13xx.a(uip6.o)
uip_process                                       contiki-cc13xx.a(uip6.o)
                                                  contiki-cc13xx.a(udp-fragment.o)
                                                  contiki-cc13xx.a(tcpip.o)
uip_sappdata                                      contiki-cc13xx.a(uip6.o)
uip_send                                          contiki-cc13xx.a(uip6.o)
uip_slen                                          contiki-cc13xx.a(uip6.o)
                                                  contiki-cc13xx.a(fcf.o)
                                                  contiki-cc13xx.a(udp-fragment.o)
                                                  contiki-cc13xx.a(uip-udp-packet.)
uip_udp_conn                                      contiki-cc13xx.a(uip6.o)
                                                  contiki-cc13xx.a(udp-fragment.o)
                                                  contiki-cc13xx.a(tcpip.o)
uip_udp_conns                                     contiki-cc13xx.a(uip6.o)
                                                  contiki-cc13xx.a(tcpip.o)
uip_udp_new                                       contiki-cc13xx.a(uip6.o)
                                                  contiki-cc13xx.a(tcpip.o)
uip_udp_packet_send                               contiki-cc13xx.a(uip-udp-packet.)
uip_udp_packet_sendto                             contiki-cc13xx.a(uip-udp-packet.)
                                                  contiki-cc13xx.a(wake-node.o)
                                                  contiki-cc13xx.a(netsynch.o)
                                                  nodes-sender.co
uip_udp_received_data_preprocess                  contiki-cc13xx.a(uip-udp-packet.)
                                                  contiki-cc13xx.a(wake-node.o)
                                                  contiki-cc13xx.a(netsynch.o)
                                                  nodes-sender.co
uip_udpchksum                                     contiki-cc13xx.a(uip6.o)
unc_ctxconf                                       contiki-cc13xx.a(sicslowpan.o)
unc_llconf                                        contiki-cc13xx.a(sicslowpan.o)
unc_mxconf                                        contiki-cc13xx.a(sicslowpan.o)
update_new_schedule                               contiki-cc13xx.a(netsynch.o)
update_schedule                                   contiki-cc13xx.a(netsynch.o)
                                                  contiki-cc13xx.a(node_function.o)
update_soft_time                                  contiki-cc13xx.a(netconfig.o)
                                                  contiki-cc13xx.a(soc-rtc.o)
uploadFlag                                        nodes-sender.co
wake_common_init                                  contiki-cc13xx.a(wake-common.o)
                                                  contiki-cc13xx.a(contiki-main.o)
wake_dev_init                                     contiki-cc13xx.a(wake-dev.o)
                                                  contiki-cc13xx.a(wake-common.o)
wake_dev_send                                     contiki-cc13xx.a(wake-dev.o)
wake_node_init                                    contiki-cc13xx.a(wake-node.o)
                                                  contiki-cc13xx.a(wake-common.o)
wake_node_process                                 contiki-cc13xx.a(wake-node.o)
wake_send                                         contiki-cc13xx.a(wake-node.o)
                                                  contiki-cc13xx.a(wake-dev.o)
                                                  contiki-cc13xx.a(wake-common.o)
wake_sent_callback                                contiki-cc13xx.a(wake-common.o)
                                                  contiki-cc13xx.a(contikimac-fcf.)
watchdog_init                                     contiki-cc13xx.a(contiki-watchdo)
                                                  contiki-cc13xx.a(contiki-main.o)
watchdog_periodic                                 contiki-cc13xx.a(contiki-watchdo)
                                                  contiki-cc13xx.a(contikimac-fcf.)
                                                  contiki-cc13xx.a(sicslowpan.o)
                                                  contiki-cc13xx.a(rf-core.o)
                                                  contiki-cc13xx.a(lpm.o)
                                                  contiki-cc13xx.a(prop-mode.o)
                                                  contiki-cc13xx.a(contiki-main.o)
watchdog_reboot                                   contiki-cc13xx.a(contiki-watchdo)
                                                  contiki-cc13xx.a(node_function.o)
watchdog_start                                    contiki-cc13xx.a(contiki-watchdo)
                                                  contiki-cc13xx.a(contiki-main.o)
watchdog_stop                                     contiki-cc13xx.a(contiki-watchdo)
write_to_flash                                    contiki-cc13xx.a(flashdata.o)
                                                  contiki-cc13xx.a(node-id.o)
